	.text
	.file	"llvm-link"
	.globl	slist_wc_append         # -- Begin function slist_wc_append
	.type	slist_wc_append,@function
slist_wc_append:                        # @slist_wc_append
	.cfi_startproc
# %bb.0:
	pushq	%r15
	.cfi_def_cfa_offset 16
	pushq	%r14
	.cfi_def_cfa_offset 24
	pushq	%rbx
	.cfi_def_cfa_offset 32
	.cfi_offset %rbx, -32
	.cfi_offset %r14, -24
	.cfi_offset %r15, -16
	movq	%rdi, %r15
	xorl	%ebx, %ebx
	xorl	%edi, %edi
	callq	curl_slist_append
	testq	%rax, %rax
	je	.LBB0_6
# %bb.1:
	movq	%rax, %r14
	testq	%r15, %r15
	je	.LBB0_2
# %bb.5:
	movq	8(%r15), %rax
	movq	%r14, 8(%rax)
	movq	%r14, 8(%r15)
	movq	%r15, %rbx
	jmp	.LBB0_6
.LBB0_2:
	movl	$16, %edi
	callq	myMalloc
	testq	%rax, %rax
	je	.LBB0_3
# %bb.4:
	movq	%rax, %rbx
	movq	%r14, (%rax)
	movq	%r14, 8(%rax)
	jmp	.LBB0_6
.LBB0_3:
	movq	%r14, %rdi
	callq	curl_slist_free_all
	xorl	%ebx, %ebx
.LBB0_6:
	movq	%rbx, %rax
	popq	%rbx
	.cfi_def_cfa_offset 24
	popq	%r14
	.cfi_def_cfa_offset 16
	popq	%r15
	.cfi_def_cfa_offset 8
	retq
.Lfunc_end0:
	.size	slist_wc_append, .Lfunc_end0-slist_wc_append
	.cfi_endproc
                                        # -- End function
	.globl	slist_wc_free_all       # -- Begin function slist_wc_free_all
	.type	slist_wc_free_all,@function
slist_wc_free_all:                      # @slist_wc_free_all
	.cfi_startproc
# %bb.0:
	testq	%rdi, %rdi
	je	.LBB1_1
# %bb.2:
	pushq	%rbx
	.cfi_def_cfa_offset 16
	.cfi_offset %rbx, -16
	movq	%rdi, %rbx
	movq	(%rdi), %rdi
	callq	curl_slist_free_all
	movq	%rbx, %rdi
	popq	%rbx
	.cfi_def_cfa_offset 8
	jmp	myFree                  # TAILCALL
.LBB1_1:
	retq
.Lfunc_end1:
	.size	slist_wc_free_all, .Lfunc_end1-slist_wc_free_all
	.cfi_endproc
                                        # -- End function
	.globl	tool_debug_cb           # -- Begin function tool_debug_cb
	.type	tool_debug_cb,@function
tool_debug_cb:                          # @tool_debug_cb
	.cfi_startproc
# %bb.0:
	pushq	%rbp
	.cfi_def_cfa_offset 16
	pushq	%r15
	.cfi_def_cfa_offset 24
	pushq	%r14
	.cfi_def_cfa_offset 32
	pushq	%r13
	.cfi_def_cfa_offset 40
	pushq	%r12
	.cfi_def_cfa_offset 48
	pushq	%rbx
	.cfi_def_cfa_offset 56
	subq	$88, %rsp
	.cfi_def_cfa_offset 144
	.cfi_offset %rbx, -56
	.cfi_offset %r12, -48
	.cfi_offset %r13, -40
	.cfi_offset %r14, -32
	.cfi_offset %r15, -24
	.cfi_offset %rbp, -16
	movq	%rcx, %r13
	movq	%rdx, 16(%rsp)          # 8-byte Spill
	movl	%esi, %r12d
	movq	1232(%r8), %rbx
	movq	8(%rbx), %r15
	cmpb	$0, 48(%rbx)
	je	.LBB2_3
# %bb.1:
	movq	%r15, %r14
	callq	tvnow
	movq	%rax, %r15
	movq	%rdx, %rbp
	cmpb	$1, tool_debug_cb.known_offset(%rip)
	jne	.LBB2_4
# %bb.2:
	movq	tool_debug_cb.epoch_offset(%rip), %rax
	jmp	.LBB2_5
.LBB2_3:
	movb	$0, 32(%rsp)
	jmp	.LBB2_6
.LBB2_4:
	xorl	%edi, %edi
	callq	time
	subq	%r15, %rax
	movq	%rax, tool_debug_cb.epoch_offset(%rip)
	movb	$1, tool_debug_cb.known_offset(%rip)
.LBB2_5:
	addq	%r15, %rax
	leaq	80(%rsp), %rdi
	movq	%rax, (%rdi)
	callq	localtime
	movl	8(%rax), %ecx
	movl	(%rax), %r9d
	movl	4(%rax), %r8d
	movq	%rbp, (%rsp)
	leaq	32(%rsp), %rdi
	movl	$20, %esi
	movl	$.L.str, %edx
	xorl	%eax, %eax
	callq	curl_msnprintf
	movq	%r14, %r15
.LBB2_6:
	movq	32(%rbx), %rax
	testq	%rax, %rax
	jne	.LBB2_7
# %bb.17:
	movq	24(%rbx), %rbp
	movl	$.L.str.1, %edi
	movq	%rbp, %rsi
	callq	strcmp
	testl	%eax, %eax
	je	.LBB2_29
# %bb.18:
	movl	$.L.str.2, %edi
	movq	%rbp, %rsi
	callq	strcmp
	testl	%eax, %eax
	je	.LBB2_31
# %bb.19:
	movl	$.L.str.3, %esi
	movq	%rbp, %rdi
	callq	fopen
	movq	%rax, 32(%rbx)
	movb	$1, 40(%rbx)
	jmp	.LBB2_7
.LBB2_29:
	movq	stdout(%rip), %rax
	jmp	.LBB2_30
.LBB2_31:
	movq	8(%rbx), %rax
.LBB2_30:
	movq	%rax, 32(%rbx)
.LBB2_7:
	testq	%rax, %rax
	cmovneq	%rax, %r15
	testq	%r15, %r15
	je	.LBB2_20
# %bb.8:
	movl	44(%rbx), %eax
	movl	%eax, 28(%rsp)          # 4-byte Spill
	cmpl	$3, %eax
	jne	.LBB2_21
# %bb.9:
	leal	-3(%r12), %eax
	cmpl	$4, %eax
	jae	.LBB2_24
# %bb.10:
	cmpb	$0, tool_debug_cb.traced_data(%rip)
	jne	.LBB2_78
# %bb.11:
	cmpb	$0, 6(%rbx)
	je	.LBB2_14
# %bb.12:
	cmpq	stderr(%rip), %r15
	je	.LBB2_78
# %bb.13:
	cmpq	stdout(%rip), %r15
	je	.LBB2_78
.LBB2_14:
	cmpb	$0, tool_debug_cb.newl(%rip)
	jne	.LBB2_16
# %bb.15:
	movl	%r12d, %eax
	movq	tool_debug_cb.s_infotype(,%rax,8), %rcx
	leaq	32(%rsp), %rdx
	movl	$.L.str.10, %esi
	movq	%r15, %rdi
	xorl	%eax, %eax
	callq	curl_mfprintf
.LBB2_16:
	movl	$.L.str.11, %esi
	movq	%r15, %rdi
	movq	%r13, %rdx
	xorl	%eax, %eax
	callq	curl_mfprintf
	movb	$0, tool_debug_cb.newl(%rip)
	movb	$1, tool_debug_cb.traced_data(%rip)
	jmp	.LBB2_78
.LBB2_20:
	movl	$.L.str.4, %esi
	movq	%rbx, %rdi
	xorl	%eax, %eax
	callq	warnf
	jmp	.LBB2_78
.LBB2_21:
	cmpl	$6, %r12d
	ja	.LBB2_78
# %bb.22:
	movl	$.L.str.13, %ecx
	movl	%r12d, %eax
	jmpq	*.LJTI2_0(,%rax,8)
.LBB2_23:
	leaq	32(%rsp), %rdx
	movl	$.L.str.12, %esi
	movq	%r15, %rdi
	movl	%r13d, %ecx
	movq	16(%rsp), %r8           # 8-byte Reload
	xorl	%eax, %eax
	callq	curl_mfprintf
	jmp	.LBB2_78
.LBB2_24:
	cmpl	$2, %r12d
	jae	.LBB2_32
# %bb.25:
	cmpb	$0, tool_debug_cb.newl(%rip)
	movq	16(%rsp), %rdi          # 8-byte Reload
	jne	.LBB2_27
# %bb.26:
	movl	%r12d, %eax
	movq	tool_debug_cb.s_infotype(,%rax,8), %rcx
	leaq	32(%rsp), %rdx
	movl	$.L.str.10, %esi
	movq	%r15, %rdi
	xorl	%eax, %eax
	callq	curl_mfprintf
	movq	16(%rsp), %rdi          # 8-byte Reload
.LBB2_27:
	movl	$1, %edx
	movq	%r13, %rsi
	movq	%r15, %rcx
	movq	%rdi, %rbx
	callq	fwrite
	testq	%r13, %r13
	je	.LBB2_42
# %bb.28:
	cmpb	$10, -1(%r13,%rbx)
	jmp	.LBB2_76
.LBB2_32:
	movq	16(%rsp), %rax          # 8-byte Reload
	jne	.LBB2_71
# %bb.33:
	testq	%r13, %r13
	je	.LBB2_42
# %bb.34:
	movq	%r15, %r14
	movq	%r13, %r15
	decq	%r15
	je	.LBB2_72
# %bb.35:                               # %.preheader
	xorl	%ebx, %ebx
	xorl	%ebp, %ebp
	xorl	%r12d, %r12d
.LBB2_36:                               # =>This Inner Loop Header: Depth=1
	cmpb	$10, (%rax,%rbp)
	jne	.LBB2_40
# %bb.37:                               #   in Loop: Header=BB2_36 Depth=1
	cmpb	$0, tool_debug_cb.newl(%rip)
	jne	.LBB2_39
# %bb.38:                               #   in Loop: Header=BB2_36 Depth=1
	movl	$.L.str.10, %esi
	movl	$.L.str.7, %ecx
	movq	%r14, %rdi
	leaq	32(%rsp), %rdx
	xorl	%eax, %eax
	callq	curl_mfprintf
	movq	16(%rsp), %rax          # 8-byte Reload
.LBB2_39:                               #   in Loop: Header=BB2_36 Depth=1
	addq	%rax, %r12
	leaq	(%rbx,%rbp), %rsi
	incq	%rsi
	incq	%rbp
	movl	$1, %edx
	movq	%r12, %rdi
	movq	%r14, %rcx
	callq	fwrite
	movq	16(%rsp), %rax          # 8-byte Reload
	movb	$0, tool_debug_cb.newl(%rip)
	movq	%rbp, %r12
	jmp	.LBB2_41
.LBB2_40:                               #   in Loop: Header=BB2_36 Depth=1
	incq	%rbp
.LBB2_41:                               #   in Loop: Header=BB2_36 Depth=1
	movq	%r12, %rbx
	negq	%rbx
	cmpq	%r15, %rbp
	jne	.LBB2_36
	jmp	.LBB2_73
.LBB2_42:
	xorl	%eax, %eax
	jmp	.LBB2_77
.LBB2_43:
	movl	$.L.str.15, %ecx
	jmp	.LBB2_48
.LBB2_44:
	movl	$.L.str.16, %ecx
	jmp	.LBB2_48
.LBB2_45:
	movl	$.L.str.14, %ecx
	jmp	.LBB2_48
.LBB2_46:
	movl	$.L.str.17, %ecx
	jmp	.LBB2_48
.LBB2_47:
	movl	$.L.str.18, %ecx
.LBB2_48:
	leaq	32(%rsp), %rdx
	movl	$.L.str.19, %esi
	movq	%r15, %rdi
	movq	%r13, %r8
	movq	%r13, %r9
	xorl	%eax, %eax
	callq	curl_mfprintf
	testq	%r13, %r13
	je	.LBB2_70
# %bb.49:
	cmpl	$2, 28(%rsp)            # 4-byte Folded Reload
	movl	$64, %eax
	movl	$16, %r12d
	cmoveq	%rax, %r12
	movq	16(%rsp), %rax          # 8-byte Reload
	addq	$2, %rax
	movq	%rax, 72(%rsp)          # 8-byte Spill
	movq	%r12, %rax
	negq	%rax
	movq	%rax, 64(%rsp)          # 8-byte Spill
	xorl	%ebx, %ebx
.LBB2_50:                               # =>This Loop Header: Depth=1
                                        #     Child Loop BB2_52 Depth 2
                                        #     Child Loop BB2_57 Depth 2
	movl	$.L.str.20, %esi
	movq	%r15, %rdi
	movq	%rbx, %rdx
	xorl	%eax, %eax
	callq	curl_mfprintf
	cmpl	$1, 28(%rsp)            # 4-byte Folded Reload
	jne	.LBB2_56
# %bb.51:                               # %.preheader2
                                        #   in Loop: Header=BB2_50 Depth=1
	movq	16(%rsp), %rax          # 8-byte Reload
	leaq	(%rax,%rbx), %r14
	xorl	%ebp, %ebp
.LBB2_52:                               #   Parent Loop BB2_50 Depth=1
                                        # =>  This Inner Loop Header: Depth=2
	leaq	(%rbx,%rbp), %rax
	cmpq	%r13, %rax
	jae	.LBB2_54
# %bb.53:                               #   in Loop: Header=BB2_52 Depth=2
	movzbl	(%r14,%rbp), %edx
	movl	$.L.str.21, %esi
	movq	%r15, %rdi
	xorl	%eax, %eax
	callq	curl_mfprintf
	jmp	.LBB2_55
.LBB2_54:                               #   in Loop: Header=BB2_52 Depth=2
	movl	$.L.str.22, %edi
	movq	%r15, %rsi
	callq	fputs
.LBB2_55:                               #   in Loop: Header=BB2_52 Depth=2
	incq	%rbp
	cmpq	%r12, %rbp
	jb	.LBB2_52
.LBB2_56:                               #   in Loop: Header=BB2_50 Depth=1
	movq	%r15, %rbp
	movq	72(%rsp), %rax          # 8-byte Reload
	leaq	(%rax,%rbx), %r15
	xorl	%r14d, %r14d
.LBB2_57:                               #   Parent Loop BB2_50 Depth=1
                                        # =>  This Inner Loop Header: Depth=2
	leaq	(%rbx,%r14), %rax
	cmpq	%r13, %rax
	jae	.LBB2_69
# %bb.58:                               #   in Loop: Header=BB2_57 Depth=2
	cmpl	$2, 28(%rsp)            # 4-byte Folded Reload
	jne	.LBB2_65
# %bb.59:                               #   in Loop: Header=BB2_57 Depth=2
	leaq	(%rbx,%r14), %rcx
	incq	%rcx
	movb	-2(%r15,%r14), %al
	cmpq	%r13, %rcx
	jae	.LBB2_62
# %bb.60:                               #   in Loop: Header=BB2_57 Depth=2
	cmpb	$13, %al
	jne	.LBB2_62
# %bb.61:                               #   in Loop: Header=BB2_57 Depth=2
	cmpb	$10, -1(%r15,%r14)
	je	.LBB2_67
.LBB2_62:                               #   in Loop: Header=BB2_57 Depth=2
	movzbl	%al, %edx
	testb	%al, %al
	movl	$46, %ecx
	cmovsl	%ecx, %edx
	cmpb	$31, %al
	cmovbel	%ecx, %edx
	movl	$.L.str.23, %esi
	movq	%rbp, %rdi
	xorl	%eax, %eax
	callq	curl_mfprintf
	leaq	(%rbx,%r14), %rax
	addq	$2, %rax
	cmpq	%r13, %rax
	jae	.LBB2_66
# %bb.63:                               #   in Loop: Header=BB2_57 Depth=2
	cmpb	$13, -1(%r15,%r14)
	jne	.LBB2_66
# %bb.64:                               #   in Loop: Header=BB2_57 Depth=2
	cmpb	$10, (%r15,%r14)
	jne	.LBB2_66
	jmp	.LBB2_68
.LBB2_65:                               #   in Loop: Header=BB2_57 Depth=2
	movzbl	-2(%r15,%r14), %eax
	testb	%al, %al
	movl	%eax, %edx
	movl	$46, %ecx
	cmovsl	%ecx, %edx
	cmpb	$31, %al
	cmovbel	%ecx, %edx
	movl	$.L.str.23, %esi
	movq	%rbp, %rdi
	xorl	%eax, %eax
	callq	curl_mfprintf
.LBB2_66:                               #   in Loop: Header=BB2_57 Depth=2
	incq	%r14
	cmpq	%r12, %r14
	jb	.LBB2_57
	jmp	.LBB2_69
.LBB2_67:                               #   in Loop: Header=BB2_50 Depth=1
	addq	64(%rsp), %rbx          # 8-byte Folded Reload
	addq	%r14, %rbx
	addq	$2, %rbx
	jmp	.LBB2_69
.LBB2_68:                               #   in Loop: Header=BB2_50 Depth=1
	addq	64(%rsp), %rbx          # 8-byte Folded Reload
	addq	%r14, %rbx
	addq	$3, %rbx
.LBB2_69:                               #   in Loop: Header=BB2_50 Depth=1
	movq	%rbp, %r15
	movl	$10, %edi
	movq	%rbp, %rsi
	callq	fputc
	addq	%r12, %rbx
	cmpq	%r13, %rbx
	jb	.LBB2_50
.LBB2_70:
	movq	%r15, %rdi
	callq	fflush
	jmp	.LBB2_78
.LBB2_71:
	xorl	%eax, %eax
	movb	%al, tool_debug_cb.newl(%rip)
	movb	%al, tool_debug_cb.traced_data(%rip)
	jmp	.LBB2_78
.LBB2_72:
	xorl	%r12d, %r12d
	xorl	%ebx, %ebx
.LBB2_73:
	cmpb	$0, tool_debug_cb.newl(%rip)
	jne	.LBB2_75
# %bb.74:
	leaq	32(%rsp), %rdx
	movl	$.L.str.10, %esi
	movl	$.L.str.7, %ecx
	movq	%r14, %rdi
	xorl	%eax, %eax
	callq	curl_mfprintf
	movq	16(%rsp), %rax          # 8-byte Reload
.LBB2_75:
	addq	%rax, %r12
	addq	%r13, %rbx
	movl	$1, %edx
	movq	%r12, %rdi
	movq	%rbx, %rsi
	movq	%r14, %rcx
	movq	%rax, %rbx
	callq	fwrite
	cmpb	$10, -1(%rbx,%r13)
.LBB2_76:
	setne	%al
.LBB2_77:
	movb	%al, tool_debug_cb.newl(%rip)
	movb	$0, tool_debug_cb.traced_data(%rip)
.LBB2_78:
	xorl	%eax, %eax
	addq	$88, %rsp
	.cfi_def_cfa_offset 56
	popq	%rbx
	.cfi_def_cfa_offset 48
	popq	%r12
	.cfi_def_cfa_offset 40
	popq	%r13
	.cfi_def_cfa_offset 32
	popq	%r14
	.cfi_def_cfa_offset 24
	popq	%r15
	.cfi_def_cfa_offset 16
	popq	%rbp
	.cfi_def_cfa_offset 8
	retq
.Lfunc_end2:
	.size	tool_debug_cb, .Lfunc_end2-tool_debug_cb
	.cfi_endproc
	.section	.rodata,"a",@progbits
	.p2align	3
.LJTI2_0:
	.quad	.LBB2_23
	.quad	.LBB2_43
	.quad	.LBB2_48
	.quad	.LBB2_44
	.quad	.LBB2_45
	.quad	.LBB2_46
	.quad	.LBB2_47
                                        # -- End function
	.text
	.globl	tvnow                   # -- Begin function tvnow
	.type	tvnow,@function
tvnow:                                  # @tvnow
	.cfi_startproc
# %bb.0:
	pushq	%rbx
	.cfi_def_cfa_offset 16
	subq	$32, %rsp
	.cfi_def_cfa_offset 48
	.cfi_offset %rbx, -16
	movq	%rsp, %rsi
	movl	$1, %edi
	callq	clock_gettime
	testl	%eax, %eax
	je	.LBB3_1
# %bb.2:
	leaq	16(%rsp), %rbx
	movq	%rbx, %rdi
	xorl	%esi, %esi
	callq	gettimeofday
	movq	(%rbx), %rcx
	movq	8(%rbx), %rdx
	jmp	.LBB3_3
.LBB3_1:
	movq	(%rsp), %rcx
	movq	%rcx, 16(%rsp)
	movabsq	$2361183241434822607, %rax # imm = 0x20C49BA5E353F7CF
	imulq	8(%rsp)
	movq	%rdx, %rax
	shrq	$63, %rax
	shrq	$7, %rdx
	addl	%eax, %edx
	movslq	%edx, %rdx
	movq	%rdx, 24(%rsp)
.LBB3_3:
	movq	%rcx, %rax
	addq	$32, %rsp
	.cfi_def_cfa_offset 16
	popq	%rbx
	.cfi_def_cfa_offset 8
	retq
.Lfunc_end3:
	.size	tvnow, .Lfunc_end3-tvnow
	.cfi_endproc
                                        # -- End function
	.globl	warnf                   # -- Begin function warnf
	.type	warnf,@function
warnf:                                  # @warnf
	.cfi_startproc
# %bb.0:
	subq	$200, %rsp
	.cfi_def_cfa_offset 208
	movq	%rdx, %r10
	movq	%rsi, %rdx
	testb	%al, %al
	je	.LBB4_2
# %bb.1:
	movaps	%xmm0, 48(%rsp)
	movaps	%xmm1, 64(%rsp)
	movaps	%xmm2, 80(%rsp)
	movaps	%xmm3, 96(%rsp)
	movaps	%xmm4, 112(%rsp)
	movaps	%xmm5, 128(%rsp)
	movaps	%xmm6, 144(%rsp)
	movaps	%xmm7, 160(%rsp)
.LBB4_2:
	movq	%rsp, %rax
	movq	%r10, 16(%rax)
	movq	%rcx, 24(%rax)
	movq	%r8, 32(%rax)
	movq	%r9, 40(%rax)
	leaq	176(%rsp), %rcx
	movq	%rax, 16(%rcx)
	leaq	208(%rsp), %rax
	movq	%rax, 8(%rcx)
	movabsq	$206158430224, %rax     # imm = 0x3000000010
	movq	%rax, (%rcx)
	movl	$.L.str.1.1139, %esi
	callq	voutf
	addq	$200, %rsp
	.cfi_def_cfa_offset 8
	retq
.Lfunc_end4:
	.size	warnf, .Lfunc_end4-warnf
	.cfi_endproc
                                        # -- End function
	.type	voutf,@function         # -- Begin function voutf
voutf:                                  # @voutf
	.cfi_startproc
# %bb.0:
	pushq	%rbp
	.cfi_def_cfa_offset 16
	pushq	%r15
	.cfi_def_cfa_offset 24
	pushq	%r14
	.cfi_def_cfa_offset 32
	pushq	%r13
	.cfi_def_cfa_offset 40
	pushq	%r12
	.cfi_def_cfa_offset 48
	pushq	%rbx
	.cfi_def_cfa_offset 56
	subq	$24, %rsp
	.cfi_def_cfa_offset 80
	.cfi_offset %rbx, -56
	.cfi_offset %r12, -48
	.cfi_offset %r13, -40
	.cfi_offset %r14, -32
	.cfi_offset %r15, -24
	.cfi_offset %rbp, -16
	movq	%rcx, %rbx
	movq	%rdx, %rbp
	movq	%rdi, %r12
	movq	%rsi, 16(%rsp)          # 8-byte Spill
	movq	%rsi, %rdi
	callq	strlen
	cmpb	$0, 4(%r12)
	je	.LBB5_1
.LBB5_10:
	addq	$24, %rsp
	.cfi_def_cfa_offset 56
	popq	%rbx
	.cfi_def_cfa_offset 48
	popq	%r12
	.cfi_def_cfa_offset 40
	popq	%r13
	.cfi_def_cfa_offset 32
	popq	%r14
	.cfi_def_cfa_offset 24
	popq	%r15
	.cfi_def_cfa_offset 16
	popq	%rbp
	.cfi_def_cfa_offset 8
	retq
.LBB5_1:
	.cfi_def_cfa_offset 80
	movq	%rax, %r15
	movq	%rbp, %rdi
	movq	%rbx, %rsi
	callq	curl_mvaprintf
	testq	%rax, %rax
	je	.LBB5_10
# %bb.2:
	movq	%rax, (%rsp)            # 8-byte Spill
	movq	%rax, %rdi
	callq	strlen
	testq	%rax, %rax
	je	.LBB5_9
# %bb.3:
	movq	%rax, %r13
	movl	$79, %r14d
	subq	%r15, %r14
	movl	$78, %eax
	subq	%r15, %rax
	movq	%rax, 8(%rsp)           # 8-byte Spill
	movq	(%rsp), %rbx            # 8-byte Reload
.LBB5_4:                                # =>This Loop Header: Depth=1
                                        #     Child Loop BB5_6 Depth 2
	movq	8(%r12), %rsi
	movq	16(%rsp), %rdi          # 8-byte Reload
	callq	fputs
	cmpq	%r14, %r13
	jbe	.LBB5_11
# %bb.5:                                # %.preheader
                                        #   in Loop: Header=BB5_4 Depth=1
	movq	%r14, %r15
.LBB5_6:                                #   Parent Loop BB5_4 Depth=1
                                        # =>  This Inner Loop Header: Depth=2
	movzbl	-1(%rbx,%r15), %edi
	callq	Curl_isspace
	cmpq	$1, %r15
	leaq	-1(%r15), %r15
	je	.LBB5_8
# %bb.7:                                #   in Loop: Header=BB5_6 Depth=2
	testl	%eax, %eax
	je	.LBB5_6
.LBB5_8:                                #   in Loop: Header=BB5_4 Depth=1
	testq	%r15, %r15
	cmoveq	8(%rsp), %r15           # 8-byte Folded Reload
	leaq	1(%r15), %rbp
	movq	8(%r12), %rcx
	movl	$1, %edx
	movq	%rbx, %rdi
	movq	%rbp, %rsi
	callq	fwrite
	movq	8(%r12), %rsi
	movl	$.L.str.4.1136, %edi
	callq	fputs
	addq	%r15, %rbx
	incq	%rbx
	subq	%rbp, %r13
	jne	.LBB5_4
	jmp	.LBB5_9
.LBB5_11:
	movq	8(%r12), %rsi
	movq	%rbx, %rdi
	callq	fputs
.LBB5_9:
	movq	(%rsp), %rdi            # 8-byte Reload
	addq	$24, %rsp
	.cfi_def_cfa_offset 56
	popq	%rbx
	.cfi_def_cfa_offset 48
	popq	%r12
	.cfi_def_cfa_offset 40
	popq	%r13
	.cfi_def_cfa_offset 32
	popq	%r14
	.cfi_def_cfa_offset 24
	popq	%r15
	.cfi_def_cfa_offset 16
	popq	%rbp
	.cfi_def_cfa_offset 8
	jmp	curl_free               # TAILCALL
.Lfunc_end5:
	.size	voutf, .Lfunc_end5-voutf
	.cfi_endproc
                                        # -- End function
	.globl	Curl_isspace            # -- Begin function Curl_isspace
	.type	Curl_isspace,@function
Curl_isspace:                           # @Curl_isspace
	.cfi_startproc
# %bb.0:
	xorl	%eax, %eax
	cmpl	$127, %edi
	ja	.LBB6_2
# %bb.1:
	movl	%edi, %eax
	movzbl	ascii(%rax), %eax
	andl	$8, %eax
.LBB6_2:
	retq
.Lfunc_end6:
	.size	Curl_isspace, .Lfunc_end6-Curl_isspace
	.cfi_endproc
                                        # -- End function
	.globl	tool_header_cb          # -- Begin function tool_header_cb
	.type	tool_header_cb,@function
tool_header_cb:                         # @tool_header_cb
	.cfi_startproc
# %bb.0:
	pushq	%rbp
	.cfi_def_cfa_offset 16
	pushq	%r15
	.cfi_def_cfa_offset 24
	pushq	%r14
	.cfi_def_cfa_offset 32
	pushq	%r13
	.cfi_def_cfa_offset 40
	pushq	%r12
	.cfi_def_cfa_offset 48
	pushq	%rbx
	.cfi_def_cfa_offset 56
	subq	$40, %rsp
	.cfi_def_cfa_offset 96
	.cfi_offset %rbx, -56
	.cfi_offset %r12, -48
	.cfi_offset %r13, -40
	.cfi_offset %r14, -32
	.cfi_offset %r15, -24
	.cfi_offset %rbp, -16
	movq	%rcx, %r12
	xorl	%eax, %eax
	movq	%rax, 24(%rsp)
	testq	%rsi, %rsi
	sete	%al
	testq	%rdx, %rdx
	sete	%cl
	orb	%al, %cl
	movzbl	%cl, %ecx
	movq	16(%r12), %rax
	testq	%rax, %rax
	je	.LBB7_1
# %bb.2:
	movq	%rsi, %r13
	movq	%rdi, %rbx
	movq	%rcx, 8(%rsp)           # 8-byte Spill
	movq	%rdx, %r15
	imulq	%rsi, %r15
	cmpq	$0, 208(%rax)
	je	.LBB7_6
# %bb.3:
	movq	240(%r12), %rcx
	testq	%rcx, %rcx
	je	.LBB7_6
# %bb.4:
	movq	%rbx, %rdi
	movq	%r13, %rsi
	callq	fwrite
	cmpq	%r15, %rax
	jne	.LBB7_81
# %bb.5:
	movq	240(%r12), %rdi
	callq	fflush
	movq	16(%r12), %rax
.LBB7_6:
	movq	%rbx, (%rsp)            # 8-byte Spill
	leaq	(%rbx,%r15), %r14
	cmpq	$0, 720(%rax)
	je	.LBB7_17
# %bb.7:
	cmpq	$0, 280(%r12)
	je	.LBB7_17
# %bb.8:
	movl	$.L.str.24, %esi
	movl	$5, %edx
	movq	(%rsp), %rdi            # 8-byte Reload
	callq	curl_strnequal
	testl	%eax, %eax
	je	.LBB7_17
# %bb.9:
	cmpb	$10, -1(%r14)
	jne	.LBB7_17
# %bb.10:
	leaq	-1(%r14), %rbx
	movq	(%rsp), %rax            # 8-byte Reload
	leaq	5(%rax), %rbp
.LBB7_11:                               # =>This Inner Loop Header: Depth=1
	movzbl	(%rbp), %edi
	callq	Curl_isspace
	cmpq	%rbx, %rbp
	leaq	1(%rbp), %rbp
	jae	.LBB7_13
# %bb.12:                               #   in Loop: Header=BB7_11 Depth=1
	testl	%eax, %eax
	jne	.LBB7_11
.LBB7_13:                               # %.preheader5
	decq	%rbp
	movq	%r14, %rbx
.LBB7_14:                               # =>This Inner Loop Header: Depth=1
	movzbl	-1(%rbx), %edi
	decq	%rbx
	callq	Curl_isspace
	testl	%eax, %eax
	jne	.LBB7_14
# %bb.15:
	subq	%rbp, %rbx
	jb	.LBB7_17
# %bb.16:
	incq	%rbx
	movq	280(%r12), %rcx
	movq	%rbp, %rdi
	movq	%r13, %rsi
	movq	%rbx, %rdx
	callq	fwrite
	movq	280(%r12), %rsi
	movl	$10, %edi
	callq	fputc
	movq	280(%r12), %rdi
	callq	fflush
.LBB7_17:
	leaq	184(%r12), %r13
	movq	24(%r12), %rdi
	leaq	24(%rsp), %rdx
	movl	$2097200, %esi          # imm = 0x200030
	xorl	%eax, %eax
	callq	curl_easy_getinfo
	cmpq	$21, %r15
	movq	(%rsp), %rbp            # 8-byte Reload
	jb	.LBB7_61
# %bb.18:
	cmpb	$0, 360(%r12)
	je	.LBB7_61
# %bb.19:
	movl	$.L.str.1.25, %edi
	movl	$20, %edx
	movq	%rbp, %rsi
	callq	curl_strnequal
	testl	%eax, %eax
	je	.LBB7_61
# %bb.20:
	testb	$3, 24(%rsp)
	je	.LBB7_61
# %bb.21:
	movq	%r13, 32(%rsp)          # 8-byte Spill
	movq	%r15, 16(%rsp)          # 8-byte Spill
	leaq	20(%rbp), %r15
	leaq	-9(%r14), %rbp
	movabsq	$7308604897068083558, %r13 # imm = 0x656D616E656C6966
.LBB7_22:                               # =>This Loop Header: Depth=1
                                        #     Child Loop BB7_25 Depth 2
                                        #     Child Loop BB7_33 Depth 2
	cmpq	%r14, %r15
	jae	.LBB7_30
# %bb.23:                               #   in Loop: Header=BB7_22 Depth=1
	movb	(%r15), %al
	testb	%al, %al
	je	.LBB7_30
# %bb.24:                               # %.preheader1
                                        #   in Loop: Header=BB7_22 Depth=1
	incq	%r15
	movq	%r15, %rbx
.LBB7_25:                               #   Parent Loop BB7_22 Depth=1
                                        # =>  This Inner Loop Header: Depth=2
	movzbl	%al, %edi
	callq	Curl_isalpha
	testl	%eax, %eax
	jne	.LBB7_29
# %bb.26:                               #   in Loop: Header=BB7_25 Depth=2
	leaq	1(%rbx), %r15
	cmpq	%r14, %rbx
	jae	.LBB7_28
# %bb.27:                               #   in Loop: Header=BB7_25 Depth=2
	movb	(%rbx), %al
	movq	%r15, %rbx
	testb	%al, %al
	jne	.LBB7_25
.LBB7_28:                               # %.loopexit2split
                                        #   in Loop: Header=BB7_22 Depth=1
	decq	%r15
	jmp	.LBB7_30
.LBB7_29:                               # %..loopexit2_crit_edge
                                        #   in Loop: Header=BB7_22 Depth=1
	decq	%rbx
	movq	%rbx, %r15
.LBB7_30:                               #   in Loop: Header=BB7_22 Depth=1
	cmpq	%rbp, %r15
	ja	.LBB7_59
# %bb.31:                               #   in Loop: Header=BB7_22 Depth=1
	movq	(%r15), %rax
	xorq	%r13, %rax
	movzbl	8(%r15), %ecx
	xorq	$61, %rcx
	orq	%rax, %rcx
	je	.LBB7_36
# %bb.32:                               #   in Loop: Header=BB7_22 Depth=1
	cmpq	%r14, %r15
	jae	.LBB7_22
.LBB7_33:                               #   Parent Loop BB7_22 Depth=1
                                        # =>  This Inner Loop Header: Depth=2
	cmpb	$59, (%r15)
	je	.LBB7_22
# %bb.34:                               #   in Loop: Header=BB7_33 Depth=2
	incq	%r15
	cmpq	%r15, %r14
	jne	.LBB7_33
# %bb.35:                               #   in Loop: Header=BB7_22 Depth=1
	movq	%r14, %r15
	jmp	.LBB7_22
.LBB7_1:
	movq	%rcx, %rax
	jmp	.LBB7_81
.LBB7_36:
	addq	$9, %r15
	movq	(%rsp), %rbx            # 8-byte Reload
	subq	%r15, %rbx
	movq	16(%rsp), %rax          # 8-byte Reload
	leaq	(%rbx,%rax), %rdi
	incq	%rdi
	callq	myMalloc
	testq	%rax, %rax
	je	.LBB7_59
# %bb.37:
	movq	%rax, %r13
	addq	16(%rsp), %rbx          # 8-byte Folded Reload
	movq	%rax, %rdi
	movq	%r15, %rsi
	movq	%rbx, %rdx
	callq	memcpy
	movb	$0, (%r13,%rbx)
	movzbl	(%r13), %eax
	cmpl	$39, %eax
	je	.LBB7_39
# %bb.38:
	movl	$59, %esi
	movq	%r13, %rbx
	cmpb	$34, %al
	jne	.LBB7_40
.LBB7_39:
	leaq	1(%r13), %rbx
	movl	%eax, %esi
.LBB7_40:
	movq	%rbx, %rdi
	callq	strchr
	testq	%rax, %rax
	je	.LBB7_42
# %bb.41:
	movb	$0, (%rax)
.LBB7_42:
	movq	%rbx, %rdi
	movl	$47, %esi
	callq	strrchr
	testq	%rax, %rax
	je	.LBB7_45
# %bb.43:
	cmpb	$0, 1(%rax)
	je	.LBB7_58
# %bb.44:
	incq	%rax
	movq	%rax, %rbx
.LBB7_45:
	movq	%rbx, %rdi
	movl	$92, %esi
	callq	strrchr
	testq	%rax, %rax
	je	.LBB7_48
# %bb.46:
	cmpb	$0, 1(%rax)
	je	.LBB7_58
# %bb.47:
	incq	%rax
	movq	%rax, %rbx
.LBB7_48:
	movq	%rbx, %rdi
	movl	$13, %esi
	callq	strchr
	testq	%rax, %rax
	je	.LBB7_50
# %bb.49:
	movb	$0, (%rax)
.LBB7_50:
	movq	%rbx, %rdi
	movl	$10, %esi
	callq	strchr
	testq	%rax, %rax
	je	.LBB7_52
# %bb.51:
	movb	$0, (%rax)
.LBB7_52:
	cmpq	%rbx, %r13
	je	.LBB7_54
# %bb.53:
	movq	%rbx, %rdi
	callq	strlen
	leaq	1(%rax), %rdx
	movq	%r13, %rdi
	movq	%rbx, %rsi
	callq	memmove
.LBB7_54:
	cmpq	$0, 200(%r12)
	je	.LBB7_56
# %bb.55:
	movq	%r13, %rdi
	callq	myFree
	jmp	.LBB7_57
.LBB7_58:
	movq	%r13, %rdi
	callq	myFree
	jmp	.LBB7_59
.LBB7_56:
	movq	%r13, 184(%r12)
	movl	$65793, 192(%r12)       # imm = 0x10101
	movb	$0, 360(%r12)
	movq	16(%r12), %rsi
	movq	32(%rsp), %rdi          # 8-byte Reload
	callq	tool_create_output_file
	testb	%al, %al
	je	.LBB7_57
.LBB7_59:
	cmpq	$0, 200(%r12)
	movq	16(%rsp), %r15          # 8-byte Reload
	movq	(%rsp), %rbp            # 8-byte Reload
	movq	32(%rsp), %r13          # 8-byte Reload
	jne	.LBB7_61
# %bb.60:
	movq	16(%r12), %rsi
	movq	%r13, %rdi
	callq	tool_create_output_file
	testb	%al, %al
	je	.LBB7_57
.LBB7_61:
	movq	328(%r12), %rbx
	cmpq	$0, 808(%rbx)
	je	.LBB7_70
# %bb.62:
	movq	%rbp, %rdi
	movl	$58, %esi
	movq	%r15, %rdx
	callq	memchr
	testq	%rax, %rax
	je	.LBB7_67
# %bb.63:
	cmpb	$0, 376(%r12)
	je	.LBB7_64
# %bb.65:
	movq	$0, 368(%r12)
	movl	$1, %eax
	jmp	.LBB7_66
.LBB7_67:
	movb	(%rbp), %al
	cmpb	$13, %al
	je	.LBB7_69
# %bb.68:
	cmpb	$10, %al
	jne	.LBB7_70
.LBB7_69:
	movb	$1, 376(%r12)
	jmp	.LBB7_70
.LBB7_64:
	movq	368(%r12), %rax
	incq	%rax
.LBB7_66:
	movb	$0, 376(%r12)
	movq	%rax, 368(%r12)
.LBB7_70:
	cmpb	$0, 455(%rbx)
	je	.LBB7_80
# %bb.71:
	testl	$263171, 24(%rsp)       # imm = 0x40403
	je	.LBB7_80
# %bb.72:
	cmpq	$0, 200(%r12)
	jne	.LBB7_74
# %bb.73:
	movq	16(%r12), %rsi
	movq	%r13, %rdi
	callq	tool_create_output_file
	movl	%eax, %ecx
	movq	8(%rsp), %rax           # 8-byte Reload
	testb	%cl, %cl
	je	.LBB7_81
.LBB7_74:
	movq	320(%r12), %rax
	cmpb	$0, 6(%rax)
	je	.LBB7_78
# %bb.75:
	cmpb	$0, 65(%rax)
	je	.LBB7_78
# %bb.76:
	movq	(%rsp), %rdi            # 8-byte Reload
	movl	$58, %esi
	movq	%r15, %rdx
	callq	memchr
	testq	%rax, %rax
	je	.LBB7_78
# %bb.77:
	movq	%rax, %rbp
	movq	%rax, %rbx
	movq	(%rsp), %rcx            # 8-byte Reload
	subq	%rcx, %rbx
	movq	200(%r12), %rdi
	movl	$.L.str.3.27, %esi
	movq	%rbx, %rdx
	xorl	%eax, %eax
	callq	curl_mfprintf
	incq	%rbp
	notq	%rbx
	addq	%r15, %rbx
	movq	200(%r12), %rcx
	movl	$1, %edx
	movq	%rbp, %rdi
	movq	%rbx, %rsi
	jmp	.LBB7_79
.LBB7_78:
	movq	200(%r12), %rcx
	movl	$1, %edx
	movq	(%rsp), %rdi            # 8-byte Reload
	movq	%r15, %rsi
.LBB7_79:
	callq	fwrite
.LBB7_80:
	movq	%r15, %rax
.LBB7_81:
	addq	$40, %rsp
	.cfi_def_cfa_offset 56
	popq	%rbx
	.cfi_def_cfa_offset 48
	popq	%r12
	.cfi_def_cfa_offset 40
	popq	%r13
	.cfi_def_cfa_offset 32
	popq	%r14
	.cfi_def_cfa_offset 24
	popq	%r15
	.cfi_def_cfa_offset 16
	popq	%rbp
	.cfi_def_cfa_offset 8
	retq
.LBB7_57:
	.cfi_def_cfa_offset 96
	movq	8(%rsp), %rax           # 8-byte Reload
	jmp	.LBB7_81
.Lfunc_end7:
	.size	tool_header_cb, .Lfunc_end7-tool_header_cb
	.cfi_endproc
                                        # -- End function
	.globl	Curl_isalpha            # -- Begin function Curl_isalpha
	.type	Curl_isalpha,@function
Curl_isalpha:                           # @Curl_isalpha
	.cfi_startproc
# %bb.0:
	xorl	%eax, %eax
	cmpl	$127, %edi
	ja	.LBB8_2
# %bb.1:
	movl	%edi, %eax
	movzbl	ascii(%rax), %eax
	andl	$3, %eax
.LBB8_2:
	retq
.Lfunc_end8:
	.size	Curl_isalpha, .Lfunc_end8-Curl_isalpha
	.cfi_endproc
                                        # -- End function
	.globl	tool_create_output_file # -- Begin function tool_create_output_file
	.type	tool_create_output_file,@function
tool_create_output_file:                # @tool_create_output_file
	.cfi_startproc
# %bb.0:
	pushq	%rbp
	.cfi_def_cfa_offset 16
	pushq	%r15
	.cfi_def_cfa_offset 24
	pushq	%r14
	.cfi_def_cfa_offset 32
	pushq	%r12
	.cfi_def_cfa_offset 40
	pushq	%rbx
	.cfi_def_cfa_offset 48
	.cfi_offset %rbx, -48
	.cfi_offset %r12, -40
	.cfi_offset %r14, -32
	.cfi_offset %r15, -24
	.cfi_offset %rbp, -16
	movq	1232(%rsi), %r14
	movq	(%rdi), %rax
	testq	%rax, %rax
	je	.LBB9_2
# %bb.1:
	cmpb	$0, (%rax)
	je	.LBB9_2
# %bb.3:
	movq	%rdi, %rbx
	cmpb	$0, 9(%rdi)
	je	.LBB9_12
# %bb.4:
	movq	200(%rsi), %rsi
	testq	%rsi, %rsi
	je	.LBB9_5
# %bb.6:
	movl	$.L.str.1.36, %edi
	movq	%rax, %rdx
	xorl	%eax, %eax
	callq	curl_maprintf
	movq	%rax, %r15
	testq	%rax, %rax
	jne	.LBB9_7
# %bb.11:
	xorl	%ebx, %ebx
	movl	$.L.str.2.38, %esi
	movq	%r14, %rdi
	xorl	%eax, %eax
	callq	errorf
	jmp	.LBB9_16
.LBB9_2:
	xorl	%ebx, %ebx
	movl	$.L.str.35, %esi
	movq	%r14, %rdi
	xorl	%eax, %eax
	callq	warnf
	jmp	.LBB9_16
.LBB9_12:
	movl	$.L.str.3.37, %esi
	movq	%rax, %rdi
	callq	fopen
	movq	%rax, %r12
	jmp	.LBB9_13
.LBB9_5:
	xorl	%r15d, %r15d
.LBB9_7:
	xorl	%r12d, %r12d
	movq	%rax, %rdi
	movl	$193, %esi
	movl	$438, %edx              # imm = 0x1B6
	xorl	%eax, %eax
	callq	open
	cmpl	$-1, %eax
	je	.LBB9_10
# %bb.8:
	movl	%eax, %ebp
	movl	$.L.str.3.37, %esi
	movl	%eax, %edi
	callq	fdopen
	movq	%rax, %r12
	testq	%rax, %rax
	jne	.LBB9_10
# %bb.9:
	movl	%ebp, %edi
	callq	close
	xorl	%r12d, %r12d
.LBB9_10:
	movq	%r15, %rdi
	callq	myFree
.LBB9_13:
	testq	%r12, %r12
	je	.LBB9_14
# %bb.15:
	movw	$257, 10(%rbx)          # imm = 0x101
	movq	%r12, 16(%rbx)
	xorps	%xmm0, %xmm0
	movups	%xmm0, 24(%rbx)
	movb	$1, %bl
	jmp	.LBB9_16
.LBB9_14:
	movq	(%rbx), %rbp
	callq	__errno_location
	movl	(%rax), %edi
	callq	strerror
	xorl	%ebx, %ebx
	movl	$.L.str.4.39, %esi
	movq	%r14, %rdi
	movq	%rbp, %rdx
	movq	%rax, %rcx
	xorl	%eax, %eax
	callq	warnf
.LBB9_16:
	movl	%ebx, %eax
	popq	%rbx
	.cfi_def_cfa_offset 40
	popq	%r12
	.cfi_def_cfa_offset 32
	popq	%r14
	.cfi_def_cfa_offset 24
	popq	%r15
	.cfi_def_cfa_offset 16
	popq	%rbp
	.cfi_def_cfa_offset 8
	retq
.Lfunc_end9:
	.size	tool_create_output_file, .Lfunc_end9-tool_create_output_file
	.cfi_endproc
                                        # -- End function
	.globl	errorf                  # -- Begin function errorf
	.type	errorf,@function
errorf:                                 # @errorf
	.cfi_startproc
# %bb.0:
	subq	$200, %rsp
	.cfi_def_cfa_offset 208
	movq	%rsi, %r10
	testb	%al, %al
	je	.LBB10_2
# %bb.1:
	movaps	%xmm0, 48(%rsp)
	movaps	%xmm1, 64(%rsp)
	movaps	%xmm2, 80(%rsp)
	movaps	%xmm3, 96(%rsp)
	movaps	%xmm4, 112(%rsp)
	movaps	%xmm5, 128(%rsp)
	movaps	%xmm6, 144(%rsp)
	movaps	%xmm7, 160(%rsp)
.LBB10_2:
	movq	%r9, 40(%rsp)
	movq	%r8, 32(%rsp)
	movq	%rcx, 24(%rsp)
	movq	%rdx, 16(%rsp)
	cmpb	$0, 4(%rdi)
	jne	.LBB10_4
# %bb.3:
	movq	%rsp, %rax
	leaq	176(%rsp), %rcx
	movq	%rax, 16(%rcx)
	leaq	208(%rsp), %rax
	movq	%rax, 8(%rcx)
	movabsq	$206158430224, %rax     # imm = 0x3000000010
	movq	%rax, (%rcx)
	movl	$.L.str.2.1142, %esi
	movq	%r10, %rdx
	callq	voutf
.LBB10_4:
	addq	$200, %rsp
	.cfi_def_cfa_offset 8
	retq
.Lfunc_end10:
	.size	errorf, .Lfunc_end10-errorf
	.cfi_endproc
                                        # -- End function
	.section	.rodata.cst8,"aM",@progbits,8
	.p2align	3               # -- Begin function tool_progress_cb
.LCPI11_0:
	.quad	4636737291354636288     # double 100
	.text
	.globl	tool_progress_cb
	.type	tool_progress_cb,@function
tool_progress_cb:                       # @tool_progress_cb
	.cfi_startproc
# %bb.0:
	pushq	%rbp
	.cfi_def_cfa_offset 16
	pushq	%r15
	.cfi_def_cfa_offset 24
	pushq	%r14
	.cfi_def_cfa_offset 32
	pushq	%r13
	.cfi_def_cfa_offset 40
	pushq	%r12
	.cfi_def_cfa_offset 48
	pushq	%rbx
	.cfi_def_cfa_offset 56
	subq	$344, %rsp              # imm = 0x158
	.cfi_def_cfa_offset 400
	.cfi_offset %rbx, -56
	.cfi_offset %r12, -48
	.cfi_offset %r13, -40
	.cfi_offset %r14, -32
	.cfi_offset %r15, -24
	.cfi_offset %rbp, -16
	movq	%r8, %rbx
	movq	%rcx, %rbp
	movq	%rdx, %r12
	movq	%rsi, %r14
	movq	%rdi, %r13
	movabsq	$9223372036854775807, %r15 # imm = 0x7FFFFFFFFFFFFFFF
	callq	tvnow
	movq	%rax, %rdi
	movq	%rdx, %rsi
	movq	16(%r13), %rax
	movq	%rax, 24(%rsp)          # 8-byte Spill
	movq	160(%r13), %rdx
	testq	%rdx, %rdx
	js	.LBB11_1
# %bb.2:
	movq	%r15, %rax
	subq	%rdx, %rax
	addq	%r14, %rbp
	leaq	(%rdx,%rbp), %rcx
	cmpq	%rbp, %rax
	cmovlq	%r15, %rcx
	addq	%r12, %rbx
	addq	%rbx, %rdx
	cmpq	%rbx, %rax
	cmovlq	%r15, %rdx
	movq	%rcx, %r15
	jmp	.LBB11_3
.LBB11_1:
	movq	%r15, %rdx
.LBB11_3:
	cmpl	$0, 112(%r13)
	je	.LBB11_4
# %bb.5:
	testq	%r15, %r15
	je	.LBB11_13
# %bb.6:
	cmpq	%rdx, 120(%r13)
	je	.LBB11_23
# %bb.7:
	movq	%rsi, %r14
	movq	%rdi, %r12
	movq	%rdx, %rbx
	movq	128(%r13), %rdx
	movq	136(%r13), %rcx
	callq	tvdiff
	movq	%rbx, %rdx
	cmpq	%r15, %rbx
	jge	.LBB11_9
# %bb.8:
	cmpq	$100, %rax
	jl	.LBB11_23
.LBB11_9:
	movl	112(%r13), %eax
	incl	%eax
	jmp	.LBB11_10
.LBB11_4:
	movq	%rsi, %r14
	movq	%rdi, %r12
	movl	$1, %eax
.LBB11_10:
	movl	%eax, 112(%r13)
	testq	%r15, %r15
	jle	.LBB11_21
# %bb.11:
	cmpq	120(%r13), %rdx
	je	.LBB11_21
# %bb.12:
	cmpq	%r15, %rdx
	cmovgeq	%rdx, %r15
	cvtsi2sd	%rdx, %xmm0
	cvtsi2sd	%r15, %xmm1
	divsd	%xmm1, %xmm0
	movsd	.LCPI11_0(%rip), %xmm1  # xmm1 = mem[0],zero
	mulsd	%xmm0, %xmm1
	movsd	%xmm1, 8(%rsp)          # 8-byte Spill
	movl	144(%r13), %ebx
	addl	$-7, %ebx
	xorps	%xmm1, %xmm1
	cvtsi2sd	%ebx, %xmm1
	mulsd	%xmm0, %xmm1
	cvttsd2si	%xmm1, %eax
	cmpl	$257, %eax              # imm = 0x101
	movl	$256, %ecx              # imm = 0x100
	cmovll	%eax, %ecx
	movslq	%ecx, %rbp
	leaq	32(%rsp), %rdi
	movl	$35, %esi
	movq	%rdx, %r15
	movq	%rbp, %rdx
	callq	memset
	movb	$0, 32(%rsp,%rbp)
	leaq	304(%rsp), %rbp
	movl	$40, %esi
	movl	$.L.str.31, %edx
	movq	%rbp, %rdi
	movl	%ebx, %ecx
	xorl	%eax, %eax
	callq	curl_msnprintf
	movq	152(%r13), %rdi
	movq	%rbp, %rsi
	leaq	32(%rsp), %rdx
	movsd	8(%rsp), %xmm0          # 8-byte Reload
                                        # xmm0 = mem[0],zero
	movb	$1, %al
	callq	curl_mfprintf
	movq	%r15, %rdx
	jmp	.LBB11_21
.LBB11_13:
	movq	%rdx, %r15
	movq	128(%r13), %rdx
	movq	136(%r13), %rcx
	movq	%rdi, %r12
	movq	%rsi, %r14
	callq	tvdiff
	cmpq	$100, %rax
	jl	.LBB11_23
# %bb.14:
	movq	120(%r13), %rax
	movq	%rax, 8(%rsp)           # 8-byte Spill
	movl	144(%r13), %ecx
	leal	-2(%rcx), %eax
	movl	%eax, 20(%rsp)          # 4-byte Spill
	decl	%ecx
	xorl	%ebx, %ebx
	leaq	32(%rsp), %rdi
	movl	$256, %esi              # imm = 0x100
	movl	$.L.str.2.28, %edx
	movl	$.L.str.3.29, %r8d
                                        # kill: def $ecx killed $ecx killed $rcx
	xorl	%eax, %eax
	callq	curl_msnprintf
	movslq	172(%r13), %rax
	movb	$45, 36(%rsp,%rax)
	movl	$1028603181, 32(%rsp,%rax) # imm = 0x3D4F3D2D
	movl	168(%r13), %eax
	imulq	$1374389535, %rax, %rcx # imm = 0x51EB851F
	shrq	$38, %rcx
	imull	$200, %ecx, %ecx
	leal	5(%rax), %edx
	imulq	$1374389535, %rdx, %rdx # imm = 0x51EB851F
	shrq	$38, %rdx
	imull	$200, %edx, %edx
	negl	%edx
	leal	(%rax,%rdx), %r8d
	addl	$5, %r8d
	leal	10(%rax), %edx
	imulq	$1374389535, %rdx, %rdx # imm = 0x51EB851F
	shrq	$38, %rdx
	imull	$200, %edx, %edx
	negl	%edx
	leal	(%rax,%rdx), %ebp
	addl	$10, %ebp
	leal	15(%rax), %edx
	imulq	$1374389535, %rdx, %rdx # imm = 0x51EB851F
	shrq	$38, %rdx
	imull	$200, %edx, %edx
	negl	%edx
	leal	(%rax,%rdx), %edi
	addl	$15, %edi
                                        # kill: def $eax killed $eax killed $rax def $rax
	subl	%ecx, %eax
	movl	sinus(,%rax,4), %ecx
	movl	$1000000, %eax          # imm = 0xF4240
	xorl	%edx, %edx
	idivl	20(%rsp)                # 4-byte Folded Reload
	movl	%eax, %esi
	movl	%ecx, %eax
	xorl	%edx, %edx
	divl	%esi
	cltq
	movb	$35, %cl
	movb	%cl, 32(%rsp,%rax)
	movl	sinus(,%r8,4), %eax
	xorl	%edx, %edx
	divl	%esi
	cltq
	movb	%cl, 32(%rsp,%rax)
	movl	sinus(,%rbp,4), %eax
	xorl	%edx, %edx
	divl	%esi
	cltq
	movb	%cl, 32(%rsp,%rax)
	movl	sinus(,%rdi,4), %eax
	xorl	%edx, %edx
	divl	%esi
	cltq
	movb	%cl, 32(%rsp,%rax)
	movq	152(%r13), %rsi
	leaq	32(%rsp), %rdi
	callq	fputs
	movq	%r15, %rdx
	movl	168(%r13), %eax
	leal	2(%rax), %ecx
	addl	$-198, %eax
	cmpl	$199, %ecx
	cmovbel	%ecx, %eax
	movl	%eax, 168(%r13)
	cmpq	8(%rsp), %r15           # 8-byte Folded Reload
	je	.LBB11_16
# %bb.15:
	movl	176(%r13), %ebx
.LBB11_16:
	addl	172(%r13), %ebx
	movl	%ebx, 172(%r13)
	movl	144(%r13), %eax
	addl	$-6, %eax
	movl	$-1, %ecx
	cmpl	%eax, %ebx
	jge	.LBB11_19
# %bb.17:
	testl	%ebx, %ebx
	jns	.LBB11_20
# %bb.18:
	xorl	%eax, %eax
	movl	$1, %ecx
.LBB11_19:
	movl	%ecx, 176(%r13)
	movl	%eax, 172(%r13)
.LBB11_20:
	incl	112(%r13)
.LBB11_21:
	movq	152(%r13), %rdi
	movq	%rdx, %rbx
	callq	fflush
	movq	%rbx, 120(%r13)
	movq	%r12, 128(%r13)
	movq	%r14, 136(%r13)
	movq	24(%rsp), %rax          # 8-byte Reload
	cmpb	$0, 786(%rax)
	je	.LBB11_23
# %bb.22:
	movq	24(%rsp), %rax          # 8-byte Reload
	movb	$0, 786(%rax)
	movq	24(%r13), %rdi
	xorl	%esi, %esi
	callq	curl_easy_pause
.LBB11_23:
	xorl	%eax, %eax
	addq	$344, %rsp              # imm = 0x158
	.cfi_def_cfa_offset 56
	popq	%rbx
	.cfi_def_cfa_offset 48
	popq	%r12
	.cfi_def_cfa_offset 40
	popq	%r13
	.cfi_def_cfa_offset 32
	popq	%r14
	.cfi_def_cfa_offset 24
	popq	%r15
	.cfi_def_cfa_offset 16
	popq	%rbp
	.cfi_def_cfa_offset 8
	retq
.Lfunc_end11:
	.size	tool_progress_cb, .Lfunc_end11-tool_progress_cb
	.cfi_endproc
                                        # -- End function
	.globl	tvdiff                  # -- Begin function tvdiff
	.type	tvdiff,@function
tvdiff:                                 # @tvdiff
	.cfi_startproc
# %bb.0:
	movq	%rsi, %rax
	subq	%rdx, %rdi
	imulq	$1000, %rdi, %rsi       # imm = 0x3E8
	subq	%rcx, %rax
	movabsq	$2361183241434822607, %rcx # imm = 0x20C49BA5E353F7CF
	imulq	%rcx
	movq	%rdx, %rax
	shrq	$63, %rax
	sarq	$7, %rdx
	addq	%rdx, %rax
	addq	%rsi, %rax
	retq
.Lfunc_end12:
	.size	tvdiff, .Lfunc_end12-tvdiff
	.cfi_endproc
                                        # -- End function
	.globl	progressbarinit         # -- Begin function progressbarinit
	.type	progressbarinit,@function
progressbarinit:                        # @progressbarinit
	.cfi_startproc
# %bb.0:
	pushq	%rbp
	.cfi_def_cfa_offset 16
	pushq	%r15
	.cfi_def_cfa_offset 24
	pushq	%r14
	.cfi_def_cfa_offset 32
	pushq	%r13
	.cfi_def_cfa_offset 40
	pushq	%r12
	.cfi_def_cfa_offset 48
	pushq	%rbx
	.cfi_def_cfa_offset 56
	pushq	%rax
	.cfi_def_cfa_offset 64
	.cfi_offset %rbx, -56
	.cfi_offset %r12, -48
	.cfi_offset %r13, -40
	.cfi_offset %r14, -32
	.cfi_offset %r15, -24
	.cfi_offset %rbp, -16
	movq	%rsi, %r14
	movq	%rdi, %rbx
	xorps	%xmm0, %xmm0
	movups	%xmm0, 48(%rdi)
	movups	%xmm0, 32(%rdi)
	movups	%xmm0, 16(%rdi)
	movups	%xmm0, (%rdi)
	movq	$0, 64(%rdi)
	cmpb	$0, 88(%rsi)
	je	.LBB13_2
# %bb.1:
	movq	136(%r14), %rax
	movq	%rax, 48(%rbx)
.LBB13_2:
	movl	$.L.str.1.32, %edi
	callq	curl_getenv
	testq	%rax, %rax
	je	.LBB13_8
# %bb.3:
	movq	%rax, %r15
	movq	%rsp, %r13
	movq	%rax, %rdi
	movq	%r13, %rsi
	movl	$10, %edx
	callq	strtol
	movq	(%r13), %rbp
	cmpq	%r15, %rbp
	je	.LBB13_7
# %bb.4:
	movq	%rax, %r12
	movq	%r15, %rdi
	callq	strlen
	leaq	-21(%r12), %rcx
	cmpq	$9978, %rcx             # imm = 0x26FA
	ja	.LBB13_7
# %bb.5:
	movq	%r15, %rcx
	addq	%rax, %rcx
	cmpq	%rcx, %rbp
	jne	.LBB13_7
# %bb.6:
	movl	%r12d, 32(%rbx)
.LBB13_7:
	movq	%r15, %rdi
	callq	curl_free
.LBB13_8:
	movl	32(%rbx), %eax
	testl	%eax, %eax
	jne	.LBB13_11
# %bb.9:
	xorl	%ebp, %ebp
	movq	%rsp, %r15
	movl	$21523, %esi            # imm = 0x5413
	xorl	%edi, %edi
	movq	%r15, %rdx
	xorl	%eax, %eax
	callq	ioctl
	testl	%eax, %eax
	movzwl	2(%r15), %eax
	cmovel	%eax, %ebp
	cmpl	$21, %ebp
	jb	.LBB13_12
# %bb.10:
	movl	%ebp, 32(%rbx)
	jmp	.LBB13_11
.LBB13_12:
	movl	32(%rbx), %eax
	testl	%eax, %eax
	je	.LBB13_13
.LBB13_11:
	movl	$256, %ecx              # imm = 0x100
	cmpl	$257, %eax              # imm = 0x101
	jl	.LBB13_15
.LBB13_14:
	movl	%ecx, 32(%rbx)
.LBB13_15:
	movq	1232(%r14), %rax
	movq	8(%rax), %rax
	movq	%rax, 40(%rbx)
	movl	$150, 56(%rbx)
	movl	$1, 64(%rbx)
	addq	$8, %rsp
	.cfi_def_cfa_offset 56
	popq	%rbx
	.cfi_def_cfa_offset 48
	popq	%r12
	.cfi_def_cfa_offset 40
	popq	%r13
	.cfi_def_cfa_offset 32
	popq	%r14
	.cfi_def_cfa_offset 24
	popq	%r15
	.cfi_def_cfa_offset 16
	popq	%rbp
	.cfi_def_cfa_offset 8
	retq
.LBB13_13:
	.cfi_def_cfa_offset 64
	movl	$79, %ecx
	jmp	.LBB13_14
.Lfunc_end13:
	.size	progressbarinit, .Lfunc_end13-progressbarinit
	.cfi_endproc
                                        # -- End function
	.globl	tool_read_cb            # -- Begin function tool_read_cb
	.type	tool_read_cb,@function
tool_read_cb:                           # @tool_read_cb
	.cfi_startproc
# %bb.0:
	pushq	%rbx
	.cfi_def_cfa_offset 16
	.cfi_offset %rbx, -16
	movq	%rcx, %rbx
	movq	%rdi, %rax
	movl	(%rcx), %edi
	imulq	%rsi, %rdx
	movq	%rax, %rsi
	callq	read
	testq	%rax, %rax
	js	.LBB14_2
# %bb.1:
	xorl	%ecx, %ecx
	jmp	.LBB14_5
.LBB14_2:
	callq	__errno_location
	cmpl	$11, (%rax)
	jne	.LBB14_3
# %bb.4:
	movl	$0, (%rax)
	movl	$268435457, %eax        # imm = 0x10000001
	movb	$1, %cl
	jmp	.LBB14_5
.LBB14_3:
	xorl	%ecx, %ecx
	xorl	%eax, %eax
.LBB14_5:
	movq	8(%rbx), %rdx
	movb	%cl, 786(%rdx)
	popq	%rbx
	.cfi_def_cfa_offset 8
	retq
.Lfunc_end14:
	.size	tool_read_cb, .Lfunc_end14-tool_read_cb
	.cfi_endproc
                                        # -- End function
	.globl	tool_readbusy_cb        # -- Begin function tool_readbusy_cb
	.type	tool_readbusy_cb,@function
tool_readbusy_cb:                       # @tool_readbusy_cb
	.cfi_startproc
# %bb.0:
	pushq	%rbx
	.cfi_def_cfa_offset 16
	.cfi_offset %rbx, -16
	movq	%rdi, %rbx
	movq	16(%rdi), %rax
	cmpb	$0, 786(%rax)
	je	.LBB15_2
# %bb.1:
	movb	$0, 786(%rax)
	movq	24(%rbx), %rdi
	xorl	%esi, %esi
	callq	curl_easy_pause
.LBB15_2:
	xorl	%ecx, %ecx
	cmpb	$0, 104(%rbx)
	movl	$268435457, %eax        # imm = 0x10000001
	cmovnel	%ecx, %eax
	popq	%rbx
	.cfi_def_cfa_offset 8
	retq
.Lfunc_end15:
	.size	tool_readbusy_cb, .Lfunc_end15-tool_readbusy_cb
	.cfi_endproc
                                        # -- End function
	.globl	tool_seek_cb            # -- Begin function tool_seek_cb
	.type	tool_seek_cb,@function
tool_seek_cb:                           # @tool_seek_cb
	.cfi_startproc
# %bb.0:
	pushq	%rax
	.cfi_def_cfa_offset 16
	movl	(%rdi), %edi
	callq	lseek
	xorl	%ecx, %ecx
	cmpq	$-1, %rax
	sete	%cl
	addl	%ecx, %ecx
	movl	%ecx, %eax
	popq	%rcx
	.cfi_def_cfa_offset 8
	retq
.Lfunc_end16:
	.size	tool_seek_cb, .Lfunc_end16-tool_seek_cb
	.cfi_endproc
                                        # -- End function
	.globl	tool_write_cb           # -- Begin function tool_write_cb
	.type	tool_write_cb,@function
tool_write_cb:                          # @tool_write_cb
	.cfi_startproc
# %bb.0:
	pushq	%rbp
	.cfi_def_cfa_offset 16
	pushq	%r15
	.cfi_def_cfa_offset 24
	pushq	%r14
	.cfi_def_cfa_offset 32
	pushq	%r13
	.cfi_def_cfa_offset 40
	pushq	%r12
	.cfi_def_cfa_offset 48
	pushq	%rbx
	.cfi_def_cfa_offset 56
	subq	$24, %rsp
	.cfi_def_cfa_offset 80
	.cfi_offset %rbx, -56
	.cfi_offset %r12, -48
	.cfi_offset %r13, -40
	.cfi_offset %r14, -32
	.cfi_offset %r15, -24
	.cfi_offset %rbp, -16
	movq	%rcx, %r12
	movq	%rsi, %rbp
	movq	16(%rcx), %r15
	movq	%rdx, %rbx
	imulq	%rsi, %rbx
	movq	1232(%r15), %rax
	movb	6(%rax), %r13b
	xorl	%r14d, %r14d
	testq	%rbx, %rbx
	sete	%r14b
	xorl	%eax, %eax
	cmpq	%rax, 200(%rcx)
	jne	.LBB17_2
# %bb.1:
	movq	%rdi, 16(%rsp)          # 8-byte Spill
	leaq	184(%r12), %rdi
	movq	%r15, %rsi
	movq	%rdx, 8(%rsp)           # 8-byte Spill
	callq	tool_create_output_file
	movq	16(%rsp), %rdi          # 8-byte Reload
	movq	8(%rsp), %rdx           # 8-byte Reload
	testb	%al, %al
	je	.LBB17_14
.LBB17_2:
	testb	%r13b, %r13b
	je	.LBB17_7
# %bb.3:
	cmpq	$1999, 208(%r12)        # imm = 0x7CF
	jg	.LBB17_7
# %bb.4:
	cmpb	$0, 792(%r15)
	je	.LBB17_5
.LBB17_7:
	movq	200(%r12), %rcx
	movq	%rbp, %rsi
	callq	fwrite
	movq	%rax, %rbp
	cmpq	%rax, %rbx
	jne	.LBB17_9
# %bb.8:
	addq	%rbx, 208(%r12)
.LBB17_9:
	cmpb	$0, 786(%r15)
	je	.LBB17_11
# %bb.10:
	movb	$0, 786(%r15)
	movq	24(%r12), %rdi
	xorl	%esi, %esi
	callq	curl_easy_pause
.LBB17_11:
	cmpb	$0, 785(%r15)
	je	.LBB17_13
# %bb.12:
	movq	200(%r12), %rdi
	callq	fflush
	testl	%eax, %eax
	jne	.LBB17_14
.LBB17_13:
	movq	%rbp, %r14
.LBB17_14:
	movq	%r14, %rax
	addq	$24, %rsp
	.cfi_def_cfa_offset 56
	popq	%rbx
	.cfi_def_cfa_offset 48
	popq	%r12
	.cfi_def_cfa_offset 40
	popq	%r13
	.cfi_def_cfa_offset 32
	popq	%r14
	.cfi_def_cfa_offset 24
	popq	%r15
	.cfi_def_cfa_offset 16
	popq	%rbp
	.cfi_def_cfa_offset 8
	retq
.LBB17_5:
	.cfi_def_cfa_offset 80
	movq	%rdi, %r13
	xorl	%esi, %esi
	movq	%rdx, 8(%rsp)           # 8-byte Spill
	movq	%rbx, %rdx
	callq	memchr
	movq	%r13, %rdi
	movq	8(%rsp), %rdx           # 8-byte Reload
	testq	%rax, %rax
	je	.LBB17_7
# %bb.6:
	movq	1232(%r15), %rdi
	movl	$.L.str.5.40, %esi
	xorl	%eax, %eax
	callq	warnf
	movl	$1, 1196(%r15)
	jmp	.LBB17_14
.Lfunc_end17:
	.size	tool_write_cb, .Lfunc_end17-tool_write_cb
	.cfi_endproc
                                        # -- End function
	.globl	config_init             # -- Begin function config_init
	.type	config_init,@function
config_init:                            # @config_init
	.cfi_startproc
# %bb.0:
	pushq	%rbp
	.cfi_def_cfa_offset 16
	pushq	%rbx
	.cfi_def_cfa_offset 24
	pushq	%rax
	.cfi_def_cfa_offset 32
	.cfi_offset %rbx, -24
	.cfi_offset %rbp, -16
	movq	%rdi, %rbx
	xorl	%ebp, %ebp
	movl	$1336, %edx             # imm = 0x538
	xorl	%esi, %esi
	callq	memset
	movq	$-1, %rax
	movq	%rax, 152(%rbx)
	movb	%bpl, 788(%rbx)
	movb	%bpl, 795(%rbx)
	movq	$50, 184(%rbx)
	movq	%rax, 96(%rbx)
	movb	%bpl, 104(%rbx)
	movq	$-201327633, 112(%rbx)  # imm = 0xF3FFFBEF
	movb	%bpl, 120(%rbx)
	movq	$0, 128(%rbx)
	movb	$1, %al
	movb	%al, 1032(%rbx)
	movq	$200, 1208(%rbx)
	movb	%bpl, 784(%rbx)
	movb	%al, 797(%rbx)
	addq	$8, %rsp
	.cfi_def_cfa_offset 24
	popq	%rbx
	.cfi_def_cfa_offset 16
	popq	%rbp
	.cfi_def_cfa_offset 8
	retq
.Lfunc_end18:
	.size	config_init, .Lfunc_end18-config_init
	.cfi_endproc
                                        # -- End function
	.section	.rodata.cst16,"aM",@progbits,16
	.p2align	4               # -- Begin function config_free
.LCPI19_0:
	.zero	16
	.text
	.globl	config_free
	.type	config_free,@function
config_free:                            # @config_free
	.cfi_startproc
# %bb.0:
	pushq	%rbp
	.cfi_def_cfa_offset 16
	pushq	%r15
	.cfi_def_cfa_offset 24
	pushq	%r14
	.cfi_def_cfa_offset 32
	pushq	%r13
	.cfi_def_cfa_offset 40
	pushq	%r12
	.cfi_def_cfa_offset 48
	pushq	%rbx
	.cfi_def_cfa_offset 56
	pushq	%rax
	.cfi_def_cfa_offset 64
	.cfi_offset %rbx, -56
	.cfi_offset %r12, -48
	.cfi_offset %r13, -40
	.cfi_offset %r14, -32
	.cfi_offset %r15, -24
	.cfi_offset %rbp, -16
	testq	%rdi, %rdi
	je	.LBB19_5
# %bb.1:                                # %.preheader1
	movq	%rdi, %r14
	xorl	%r15d, %r15d
.LBB19_2:                               # =>This Loop Header: Depth=1
                                        #     Child Loop BB19_3 Depth 2
	movq	1240(%r14), %r12
	movq	8(%r14), %rdi
	callq	myFree
	movq	%r15, 8(%r14)
	movq	16(%r14), %rdi
	callq	myFree
	movq	%r15, 16(%r14)
	movq	24(%r14), %rdi
	callq	myFree
	movq	%r15, 24(%r14)
	movq	56(%r14), %rdi
	callq	myFree
	movq	%r15, 56(%r14)
	movq	64(%r14), %rdi
	callq	myFree
	movq	%r15, 64(%r14)
	movq	32(%r14), %rdi
	callq	curl_slist_free_all
	movq	40(%r14), %rdi
	callq	myFree
	movq	%r15, 40(%r14)
	movq	48(%r14), %rdi
	callq	curl_slist_free_all
	movq	144(%r14), %rdi
	callq	myFree
	movq	%r15, 144(%r14)
	movq	160(%r14), %rdi
	callq	myFree
	movq	%r15, 160(%r14)
	movq	208(%r14), %rdi
	callq	myFree
	movq	%r15, 208(%r14)
	movq	216(%r14), %rdi
	callq	myFree
	movq	%r15, 216(%r14)
	movq	224(%r14), %rdi
	callq	myFree
	movq	%r15, 224(%r14)
	movq	256(%r14), %rdi
	callq	myFree
	movq	%r15, 256(%r14)
	movq	312(%r14), %rdi
	callq	myFree
	movq	%r15, 312(%r14)
	movq	328(%r14), %rdi
	callq	myFree
	movq	%r15, 328(%r14)
	movq	336(%r14), %rdi
	callq	myFree
	movq	%r15, 336(%r14)
	movq	344(%r14), %rdi
	callq	myFree
	movq	%r15, 344(%r14)
	movq	352(%r14), %rdi
	callq	myFree
	movq	%r15, 352(%r14)
	movq	360(%r14), %rdi
	callq	myFree
	movq	%r15, 360(%r14)
	movq	368(%r14), %rdi
	callq	myFree
	movq	%r15, 368(%r14)
	movq	376(%r14), %rdi
	callq	myFree
	movq	%r15, 376(%r14)
	movq	384(%r14), %rdi
	callq	myFree
	movq	%r15, 384(%r14)
	movq	304(%r14), %rdi
	callq	myFree
	movq	%r15, 304(%r14)
	movq	296(%r14), %rdi
	callq	myFree
	movq	%r15, 296(%r14)
	movq	288(%r14), %rdi
	callq	myFree
	movq	%r15, 288(%r14)
	movq	280(%r14), %rdi
	callq	myFree
	movq	%r15, 280(%r14)
	movq	400(%r14), %rdi
	callq	myFree
	movq	%r15, 400(%r14)
	movq	408(%r14), %rdi
	callq	myFree
	movq	%r15, 408(%r14)
	movq	416(%r14), %rdi
	callq	curl_slist_free_all
	movq	424(%r14), %rdi
	callq	myFree
	movq	%r15, 424(%r14)
	movq	464(%r14), %rdi
	callq	myFree
	movq	%r15, 464(%r14)
	movq	200(%r14), %rdi
	callq	myFree
	movq	%r15, 200(%r14)
	leaq	472(%r14), %r13
	movq	472(%r14), %rbx
	testq	%rbx, %rbx
	je	.LBB19_4
.LBB19_3:                               #   Parent Loop BB19_2 Depth=1
                                        # =>  This Inner Loop Header: Depth=2
	movq	(%rbx), %rbp
	movq	8(%rbx), %rdi
	callq	myFree
	movq	%r15, 8(%rbx)
	movq	16(%rbx), %rdi
	callq	myFree
	movq	%r15, 16(%rbx)
	movq	24(%rbx), %rdi
	callq	myFree
	movq	%rbx, %rdi
	callq	myFree
	movq	%rbp, %rbx
	testq	%rbp, %rbp
	jne	.LBB19_3
.LBB19_4:                               #   in Loop: Header=BB19_2 Depth=1
	xorps	%xmm0, %xmm0
	movups	%xmm0, 16(%r13)
	movups	%xmm0, (%r13)
	movq	512(%r14), %rdi
	callq	myFree
	movq	%r15, 512(%r14)
	movq	520(%r14), %rdi
	callq	myFree
	movq	%r15, 520(%r14)
	movq	528(%r14), %rdi
	callq	myFree
	movq	%r15, 528(%r14)
	movq	552(%r14), %rdi
	callq	myFree
	movq	%r15, 552(%r14)
	movq	560(%r14), %rdi
	callq	myFree
	movq	%r15, 560(%r14)
	movq	568(%r14), %rdi
	callq	myFree
	movq	%r15, 568(%r14)
	movq	576(%r14), %rdi
	callq	myFree
	movq	%r15, 576(%r14)
	movq	584(%r14), %rdi
	callq	myFree
	movq	%r15, 584(%r14)
	movq	320(%r14), %rdi
	callq	myFree
	movq	%r15, 320(%r14)
	movq	592(%r14), %rdi
	callq	myFree
	movq	%r15, 592(%r14)
	movq	600(%r14), %rdi
	callq	myFree
	movq	%r15, 600(%r14)
	movq	608(%r14), %rdi
	callq	myFree
	movq	%r15, 608(%r14)
	movq	616(%r14), %rdi
	callq	myFree
	movq	%r15, 616(%r14)
	movq	632(%r14), %rdi
	callq	myFree
	movq	%r15, 632(%r14)
	movq	640(%r14), %rdi
	callq	myFree
	movq	%r15, 640(%r14)
	movq	624(%r14), %rdi
	callq	myFree
	movq	%r15, 624(%r14)
	movq	648(%r14), %rdi
	callq	myFree
	movq	%r15, 648(%r14)
	movq	656(%r14), %rdi
	callq	myFree
	movq	%r15, 656(%r14)
	movq	664(%r14), %rdi
	callq	myFree
	movq	%r15, 664(%r14)
	movq	672(%r14), %rdi
	callq	myFree
	movq	%r15, 672(%r14)
	movq	680(%r14), %rdi
	callq	myFree
	movq	%r15, 680(%r14)
	movq	688(%r14), %rdi
	callq	myFree
	movq	%r15, 688(%r14)
	movq	696(%r14), %rdi
	callq	myFree
	movq	%r15, 696(%r14)
	movq	704(%r14), %rdi
	callq	myFree
	movq	%r15, 704(%r14)
	movq	712(%r14), %rdi
	callq	myFree
	movq	%r15, 712(%r14)
	movq	720(%r14), %rdi
	callq	myFree
	movq	%r15, 720(%r14)
	movq	728(%r14), %rdi
	callq	myFree
	movq	%r15, 728(%r14)
	movq	768(%r14), %rdi
	callq	myFree
	movq	%r15, 768(%r14)
	movq	744(%r14), %rdi
	callq	myFree
	movq	%r15, 744(%r14)
	movq	760(%r14), %rdi
	callq	myFree
	movq	%r15, 760(%r14)
	movq	1152(%r14), %rdi
	callq	myFree
	movq	%r15, 1152(%r14)
	movq	440(%r14), %rdi
	callq	myFree
	movq	%r15, 440(%r14)
	movq	1168(%r14), %rdi
	callq	myFree
	movq	%r15, 1168(%r14)
	movq	808(%r14), %rdi
	callq	myFree
	movq	%r15, 808(%r14)
	movq	128(%r14), %rdi
	callq	myFree
	movq	%r15, 128(%r14)
	movq	816(%r14), %rdi
	callq	curl_slist_free_all
	movq	824(%r14), %rdi
	callq	curl_slist_free_all
	movq	832(%r14), %rdi
	callq	curl_slist_free_all
	movq	896(%r14), %rdi
	callq	curl_slist_free_all
	movq	904(%r14), %rdi
	callq	curl_slist_free_all
	movq	928(%r14), %rdi
	callq	curl_mime_free
	movq	%r15, 928(%r14)
	movq	912(%r14), %rdi
	callq	tool_mime_free
	xorps	%xmm0, %xmm0
	movups	%xmm0, 912(%r14)
	movq	936(%r14), %rdi
	callq	curl_slist_free_all
	movq	944(%r14), %rdi
	callq	curl_slist_free_all
	movq	952(%r14), %rdi
	callq	curl_slist_free_all
	movq	992(%r14), %rdi
	callq	myFree
	movq	%r15, 992(%r14)
	movq	1016(%r14), %rdi
	callq	myFree
	movq	%r15, 1016(%r14)
	movq	1024(%r14), %rdi
	callq	myFree
	movq	%r15, 1024(%r14)
	movq	1072(%r14), %rdi
	callq	myFree
	movq	%r15, 1072(%r14)
	movq	1080(%r14), %rdi
	callq	myFree
	movq	%r15, 1080(%r14)
	movq	1224(%r14), %rdi
	callq	myFree
	movq	%r14, %rdi
	callq	myFree
	movq	%r12, %r14
	testq	%r12, %r12
	jne	.LBB19_2
.LBB19_5:
	addq	$8, %rsp
	.cfi_def_cfa_offset 56
	popq	%rbx
	.cfi_def_cfa_offset 48
	popq	%r12
	.cfi_def_cfa_offset 40
	popq	%r13
	.cfi_def_cfa_offset 32
	popq	%r14
	.cfi_def_cfa_offset 24
	popq	%r15
	.cfi_def_cfa_offset 16
	popq	%rbp
	.cfi_def_cfa_offset 8
	retq
.Lfunc_end19:
	.size	config_free, .Lfunc_end19-config_free
	.cfi_endproc
                                        # -- End function
	.globl	tool_mime_free          # -- Begin function tool_mime_free
	.type	tool_mime_free,@function
tool_mime_free:                         # @tool_mime_free
	.cfi_startproc
# %bb.0:
	testq	%rdi, %rdi
	je	.LBB20_6
# %bb.1:
	pushq	%r14
	.cfi_def_cfa_offset 16
	pushq	%rbx
	.cfi_def_cfa_offset 24
	pushq	%rax
	.cfi_def_cfa_offset 32
	.cfi_offset %rbx, -24
	.cfi_offset %r14, -16
	movq	%rdi, %rbx
	movq	72(%rdi), %rdi
	testq	%rdi, %rdi
	je	.LBB20_3
# %bb.2:
	callq	tool_mime_free
.LBB20_3:
	movq	16(%rbx), %rdi
	testq	%rdi, %rdi
	je	.LBB20_5
# %bb.4:
	callq	tool_mime_free
.LBB20_5:
	movq	32(%rbx), %rdi
	callq	myFree
	xorl	%r14d, %r14d
	movq	%r14, 32(%rbx)
	movq	40(%rbx), %rdi
	callq	myFree
	movq	%r14, 40(%rbx)
	movq	48(%rbx), %rdi
	callq	myFree
	movq	%r14, 48(%rbx)
	movq	56(%rbx), %rdi
	callq	myFree
	movq	%r14, 56(%rbx)
	movq	24(%rbx), %rdi
	callq	myFree
	movq	%r14, 24(%rbx)
	movq	64(%rbx), %rdi
	callq	curl_slist_free_all
	movq	%rbx, %rdi
	addq	$8, %rsp
	.cfi_def_cfa_offset 24
	popq	%rbx
	.cfi_def_cfa_offset 16
	popq	%r14
	.cfi_def_cfa_offset 8
	jmp	myFree                  # TAILCALL
.LBB20_6:
	retq
.Lfunc_end20:
	.size	tool_mime_free, .Lfunc_end20-tool_mime_free
	.cfi_endproc
                                        # -- End function
	.globl	create_dir_hierarchy    # -- Begin function create_dir_hierarchy
	.type	create_dir_hierarchy,@function
create_dir_hierarchy:                   # @create_dir_hierarchy
	.cfi_startproc
# %bb.0:
	pushq	%rbp
	.cfi_def_cfa_offset 16
	pushq	%r15
	.cfi_def_cfa_offset 24
	pushq	%r14
	.cfi_def_cfa_offset 32
	pushq	%r13
	.cfi_def_cfa_offset 40
	pushq	%r12
	.cfi_def_cfa_offset 48
	pushq	%rbx
	.cfi_def_cfa_offset 56
	pushq	%rax
	.cfi_def_cfa_offset 64
	.cfi_offset %rbx, -56
	.cfi_offset %r12, -48
	.cfi_offset %r13, -40
	.cfi_offset %r14, -32
	.cfi_offset %r15, -24
	.cfi_offset %rbp, -16
	movq	%rsi, %r15
	movq	%rdi, %rbx
	callq	strlen
	movq	%rax, %r12
	movq	%rbx, %rdi
	callq	strdup
	movl	$27, %ebp
	testq	%rax, %rax
	je	.LBB21_6
# %bb.1:
	movq	%rax, %r14
	leaq	1(%r12), %rdi
	callq	myMalloc
	testq	%rax, %rax
	je	.LBB21_5
# %bb.2:
	movq	%rax, %r13
	movb	$0, (%rax)
	movl	$.L.str.41, %esi
	movq	%r14, %rdi
	callq	strtok
	testq	%rax, %rax
	je	.LBB21_3
# %bb.7:
	movq	%rax, %rbx
.LBB21_8:                               # =>This Inner Loop Header: Depth=1
	xorl	%ebp, %ebp
	movl	$.L.str.41, %esi
	xorl	%edi, %edi
	callq	strtok
	testq	%rax, %rax
	je	.LBB21_4
# %bb.9:                                #   in Loop: Header=BB21_8 Depth=1
	movq	%rbx, %rbp
	movq	%rax, %rbx
	movq	%r13, %rdi
	callq	strlen
	testq	%rax, %rax
	je	.LBB21_11
# %bb.10:                               #   in Loop: Header=BB21_8 Depth=1
	leaq	(%rax,%r13), %rdi
	movq	%r12, %rsi
	subq	%rax, %rsi
	movl	$.L.str.1.42, %edx
	movl	$.L.str.41, %ecx
	jmp	.LBB21_14
.LBB21_11:                              #   in Loop: Header=BB21_8 Depth=1
	cmpq	%rbp, %r14
	je	.LBB21_12
# %bb.13:                               #   in Loop: Header=BB21_8 Depth=1
	movl	$.L.str.1.42, %edx
	movl	$.L.str.41, %ecx
	movq	%r13, %rdi
	movq	%r12, %rsi
.LBB21_14:                              #   in Loop: Header=BB21_8 Depth=1
	movq	%rbp, %r8
	xorl	%eax, %eax
	callq	curl_msnprintf
.LBB21_15:                              #   in Loop: Header=BB21_8 Depth=1
	movq	%r13, %rdi
	movl	$488, %esi              # imm = 0x1E8
	callq	mkdir
	cmpl	$-1, %eax
	jne	.LBB21_8
# %bb.16:                               #   in Loop: Header=BB21_8 Depth=1
	callq	__errno_location
	movl	(%rax), %eax
	cmpl	$16, %eax
	jle	.LBB21_17
# %bb.18:                               #   in Loop: Header=BB21_8 Depth=1
	cmpl	$27, %eax
	jg	.LBB21_21
# %bb.19:                               #   in Loop: Header=BB21_8 Depth=1
	cmpl	$17, %eax
	je	.LBB21_8
	jmp	.LBB21_20
.LBB21_17:                              #   in Loop: Header=BB21_8 Depth=1
	cmpl	$13, %eax
	je	.LBB21_8
	jmp	.LBB21_20
.LBB21_12:                              #   in Loop: Header=BB21_8 Depth=1
	movq	%r13, %rdi
	movq	%r14, %rsi
	callq	strcpy
	jmp	.LBB21_15
.LBB21_3:
	xorl	%ebp, %ebp
	jmp	.LBB21_4
.LBB21_21:
	cmpl	$35, %eax
	jg	.LBB21_25
# %bb.22:
	cmpl	$28, %eax
	je	.LBB21_29
# %bb.23:
	cmpl	$30, %eax
	jne	.LBB21_20
# %bb.24:
	movl	$.L.str.4.44, %esi
	jmp	.LBB21_28
.LBB21_25:
	cmpl	$122, %eax
	je	.LBB21_30
# %bb.26:
	cmpl	$36, %eax
	jne	.LBB21_20
# %bb.27:
	movl	$.L.str.3.43, %esi
	jmp	.LBB21_28
.LBB21_29:
	movl	$.L.str.5.45, %esi
	jmp	.LBB21_28
.LBB21_30:
	movl	$.L.str.6.46, %esi
	jmp	.LBB21_28
.LBB21_20:
	movl	$.L.str.7.47, %esi
.LBB21_28:
	movq	%r15, %rdi
	movq	%r13, %rdx
	xorl	%eax, %eax
	callq	curl_mfprintf
	movl	$23, %ebp
.LBB21_4:
	movq	%r13, %rdi
	callq	myFree
.LBB21_5:
	movq	%r14, %rdi
	callq	myFree
.LBB21_6:
	movl	%ebp, %eax
	addq	$8, %rsp
	.cfi_def_cfa_offset 56
	popq	%rbx
	.cfi_def_cfa_offset 48
	popq	%r12
	.cfi_def_cfa_offset 40
	popq	%r13
	.cfi_def_cfa_offset 32
	popq	%r14
	.cfi_def_cfa_offset 24
	popq	%r15
	.cfi_def_cfa_offset 16
	popq	%rbp
	.cfi_def_cfa_offset 8
	retq
.Lfunc_end21:
	.size	create_dir_hierarchy, .Lfunc_end21-create_dir_hierarchy
	.cfi_endproc
                                        # -- End function
	.globl	easysrc_add             # -- Begin function easysrc_add
	.type	easysrc_add,@function
easysrc_add:                            # @easysrc_add
	.cfi_startproc
# %bb.0:
	pushq	%rbx
	.cfi_def_cfa_offset 16
	.cfi_offset %rbx, -16
	movq	%rdi, %rbx
	movq	(%rdi), %rdi
	callq	slist_wc_append
	testq	%rax, %rax
	je	.LBB22_1
# %bb.2:
	movq	%rax, (%rbx)
	xorl	%eax, %eax
	jmp	.LBB22_3
.LBB22_1:
	callq	easysrc_free
	movl	$27, %eax
.LBB22_3:
	popq	%rbx
	.cfi_def_cfa_offset 8
	retq
.Lfunc_end22:
	.size	easysrc_add, .Lfunc_end22-easysrc_add
	.cfi_endproc
                                        # -- End function
	.type	easysrc_free,@function  # -- Begin function easysrc_free
easysrc_free:                           # @easysrc_free
	.cfi_startproc
# %bb.0:
	pushq	%rbx
	.cfi_def_cfa_offset 16
	.cfi_offset %rbx, -16
	movq	easysrc_decl(%rip), %rdi
	callq	slist_wc_free_all
	xorl	%ebx, %ebx
	movq	%rbx, easysrc_decl(%rip)
	movq	easysrc_data(%rip), %rdi
	callq	slist_wc_free_all
	movq	%rbx, easysrc_data(%rip)
	movq	easysrc_code(%rip), %rdi
	callq	slist_wc_free_all
	movq	%rbx, easysrc_code(%rip)
	movq	easysrc_toohard(%rip), %rdi
	callq	slist_wc_free_all
	movq	%rbx, easysrc_toohard(%rip)
	movq	easysrc_clean(%rip), %rdi
	callq	slist_wc_free_all
	movq	%rbx, easysrc_clean(%rip)
	popq	%rbx
	.cfi_def_cfa_offset 8
	retq
.Lfunc_end23:
	.size	easysrc_free, .Lfunc_end23-easysrc_free
	.cfi_endproc
                                        # -- End function
	.globl	easysrc_addf            # -- Begin function easysrc_addf
	.type	easysrc_addf,@function
easysrc_addf:                           # @easysrc_addf
	.cfi_startproc
# %bb.0:
	pushq	%rbp
	.cfi_def_cfa_offset 16
	pushq	%r14
	.cfi_def_cfa_offset 24
	pushq	%rbx
	.cfi_def_cfa_offset 32
	subq	$208, %rsp
	.cfi_def_cfa_offset 240
	.cfi_offset %rbx, -32
	.cfi_offset %r14, -24
	.cfi_offset %rbp, -16
	movq	%rsi, %rbp
	movq	%rdi, %r14
	testb	%al, %al
	je	.LBB24_2
# %bb.1:
	movaps	%xmm0, 48(%rsp)
	movaps	%xmm1, 64(%rsp)
	movaps	%xmm2, 80(%rsp)
	movaps	%xmm3, 96(%rsp)
	movaps	%xmm4, 112(%rsp)
	movaps	%xmm5, 128(%rsp)
	movaps	%xmm6, 144(%rsp)
	movaps	%xmm7, 160(%rsp)
.LBB24_2:
	movq	%rsp, %rax
	movq	%rdx, 16(%rax)
	movq	%rcx, 24(%rax)
	movq	%r8, 32(%rax)
	movq	%r9, 40(%rax)
	leaq	176(%rsp), %rsi
	movq	%rax, 16(%rsi)
	leaq	240(%rsp), %rax
	movq	%rax, 8(%rsi)
	movabsq	$206158430224, %rax     # imm = 0x3000000010
	movq	%rax, (%rsi)
	movq	%rbp, %rdi
	callq	curl_mvaprintf
	testq	%rax, %rax
	je	.LBB24_3
# %bb.4:
	movq	%rax, %rbx
	movq	%r14, %rdi
	movq	%rax, %rsi
	callq	easysrc_add
	movl	%eax, %ebp
	movq	%rbx, %rdi
	callq	curl_free
	jmp	.LBB24_5
.LBB24_3:
	movl	$27, %ebp
.LBB24_5:
	movl	%ebp, %eax
	addq	$208, %rsp
	.cfi_def_cfa_offset 32
	popq	%rbx
	.cfi_def_cfa_offset 24
	popq	%r14
	.cfi_def_cfa_offset 16
	popq	%rbp
	.cfi_def_cfa_offset 8
	retq
.Lfunc_end24:
	.size	easysrc_addf, .Lfunc_end24-easysrc_addf
	.cfi_endproc
                                        # -- End function
	.globl	easysrc_init            # -- Begin function easysrc_init
	.type	easysrc_init,@function
easysrc_init:                           # @easysrc_init
	.cfi_startproc
# %bb.0:
	movl	$easysrc_code, %edi
	movl	$.L.str.48, %esi
	jmp	easysrc_add             # TAILCALL
.Lfunc_end25:
	.size	easysrc_init, .Lfunc_end25-easysrc_init
	.cfi_endproc
                                        # -- End function
	.globl	easysrc_perform         # -- Begin function easysrc_perform
	.type	easysrc_perform,@function
easysrc_perform:                        # @easysrc_perform
	.cfi_startproc
# %bb.0:
	pushq	%rbx
	.cfi_def_cfa_offset 16
	.cfi_offset %rbx, -16
	cmpq	$0, easysrc_toohard(%rip)
	je	.LBB26_11
# %bb.1:
	movl	$easysrc_code, %edi
	movl	$.L.str.1.49, %esi
	callq	easysrc_add
	testl	%eax, %eax
	jne	.LBB26_16
# %bb.2:                                # %.preheader2
	movq	$-32, %rbx
.LBB26_4:                               # =>This Inner Loop Header: Depth=1
	movq	srchard+32(%rbx), %rsi
	movl	$easysrc_code, %edi
	callq	easysrc_add
	testl	%eax, %eax
	jne	.LBB26_16
# %bb.3:                                #   in Loop: Header=BB26_4 Depth=1
	addq	$8, %rbx
	jne	.LBB26_4
# %bb.5:
	movq	easysrc_toohard(%rip), %rax
	testq	%rax, %rax
	je	.LBB26_8
# %bb.6:
	movq	(%rax), %rbx
.LBB26_7:                               # =>This Inner Loop Header: Depth=1
	testq	%rbx, %rbx
	je	.LBB26_8
# %bb.15:                               #   in Loop: Header=BB26_7 Depth=1
	movq	(%rbx), %rsi
	movl	$easysrc_code, %edi
	callq	easysrc_add
	testl	%eax, %eax
	jne	.LBB26_16
# %bb.14:                               #   in Loop: Header=BB26_7 Depth=1
	movq	8(%rbx), %rbx
	jmp	.LBB26_7
.LBB26_8:
	movl	$easysrc_code, %edi
	movl	$.L.str.1.49, %esi
	callq	easysrc_add
	testl	%eax, %eax
	jne	.LBB26_16
# %bb.9:
	movl	$easysrc_code, %edi
	movl	$.L.str.2.50, %esi
	callq	easysrc_add
	testl	%eax, %eax
	jne	.LBB26_16
# %bb.10:
	movq	easysrc_toohard(%rip), %rdi
	callq	slist_wc_free_all
	movq	$0, easysrc_toohard(%rip)
.LBB26_11:
	movl	$easysrc_code, %edi
	movl	$.L.str.1.49, %esi
	callq	easysrc_add
	testl	%eax, %eax
	jne	.LBB26_16
# %bb.12:
	movl	$easysrc_code, %edi
	movl	$.L.str.3.51, %esi
	callq	easysrc_add
	testl	%eax, %eax
	je	.LBB26_13
.LBB26_16:
	popq	%rbx
	.cfi_def_cfa_offset 8
	retq
.LBB26_13:
	.cfi_def_cfa_offset 16
	movl	$easysrc_code, %edi
	movl	$.L.str.1.49, %esi
	popq	%rbx
	.cfi_def_cfa_offset 8
	jmp	easysrc_add             # TAILCALL
.Lfunc_end26:
	.size	easysrc_perform, .Lfunc_end26-easysrc_perform
	.cfi_endproc
                                        # -- End function
	.globl	easysrc_cleanup         # -- Begin function easysrc_cleanup
	.type	easysrc_cleanup,@function
easysrc_cleanup:                        # @easysrc_cleanup
	.cfi_startproc
# %bb.0:
	pushq	%rax
	.cfi_def_cfa_offset 16
	movl	$easysrc_code, %edi
	movl	$.L.str.4.55, %esi
	callq	easysrc_add
	testl	%eax, %eax
	je	.LBB27_2
# %bb.1:
	popq	%rcx
	.cfi_def_cfa_offset 8
	retq
.LBB27_2:
	.cfi_def_cfa_offset 16
	movl	$easysrc_code, %edi
	movl	$.L.str.5.56, %esi
	popq	%rax
	.cfi_def_cfa_offset 8
	jmp	easysrc_add             # TAILCALL
.Lfunc_end27:
	.size	easysrc_cleanup, .Lfunc_end27-easysrc_cleanup
	.cfi_endproc
                                        # -- End function
	.globl	dumpeasysrc             # -- Begin function dumpeasysrc
	.type	dumpeasysrc,@function
dumpeasysrc:                            # @dumpeasysrc
	.cfi_startproc
# %bb.0:
	pushq	%rbp
	.cfi_def_cfa_offset 16
	pushq	%r15
	.cfi_def_cfa_offset 24
	pushq	%r14
	.cfi_def_cfa_offset 32
	pushq	%r12
	.cfi_def_cfa_offset 40
	pushq	%rbx
	.cfi_def_cfa_offset 48
	.cfi_offset %rbx, -48
	.cfi_offset %r12, -40
	.cfi_offset %r14, -32
	.cfi_offset %r15, -24
	.cfi_offset %rbp, -16
	movq	%rdi, %r14
	movq	56(%rdi), %r15
	movl	$.L.str.6.57, %esi
	movq	%r15, %rdi
	callq	strcmp
	testl	%eax, %eax
	je	.LBB28_2
# %bb.1:
	movl	$.L.str.7.58, %esi
	movq	%r15, %rdi
	callq	fopen
	movq	%rax, %rbx
	movb	$1, %r12b
	jmp	.LBB28_3
.LBB28_2:
	movq	stdout(%rip), %rbx
	xorl	%r12d, %r12d
.LBB28_3:
	testq	%rbx, %rbx
	je	.LBB28_30
# %bb.4:                                # %.preheader7
	movq	$-80, %rbp
.LBB28_5:                               # =>This Inner Loop Header: Depth=1
	movq	srchead+80(%rbp), %rdx
	movl	$.L.str.9.60, %esi
	movq	%rbx, %rdi
	xorl	%eax, %eax
	callq	curl_mfprintf
	addq	$8, %rbp
	jne	.LBB28_5
# %bb.6:
	movq	easysrc_decl(%rip), %rax
	testq	%rax, %rax
	je	.LBB28_10
# %bb.7:
	movq	(%rax), %rbp
.LBB28_9:                               # =>This Inner Loop Header: Depth=1
	testq	%rbp, %rbp
	je	.LBB28_10
# %bb.8:                                #   in Loop: Header=BB28_9 Depth=1
	movq	(%rbp), %rdx
	movl	$.L.str.10.61, %esi
	movq	%rbx, %rdi
	xorl	%eax, %eax
	callq	curl_mfprintf
	movq	8(%rbp), %rbp
	jmp	.LBB28_9
.LBB28_10:
	cmpq	$0, easysrc_data(%rip)
	je	.LBB28_14
# %bb.11:
	movl	$.L.str.11.62, %esi
	movq	%rbx, %rdi
	xorl	%eax, %eax
	callq	curl_mfprintf
	movq	easysrc_data(%rip), %rax
	movq	(%rax), %rbp
.LBB28_13:                              # =>This Inner Loop Header: Depth=1
	testq	%rbp, %rbp
	je	.LBB28_14
# %bb.12:                               #   in Loop: Header=BB28_13 Depth=1
	movq	(%rbp), %rdx
	movl	$.L.str.10.61, %esi
	movq	%rbx, %rdi
	xorl	%eax, %eax
	callq	curl_mfprintf
	movq	8(%rbp), %rbp
	jmp	.LBB28_13
.LBB28_14:
	movl	$.L.str.11.62, %esi
	movq	%rbx, %rdi
	xorl	%eax, %eax
	callq	curl_mfprintf
	movq	easysrc_code(%rip), %rax
	testq	%rax, %rax
	je	.LBB28_21
# %bb.15:
	movq	(%rax), %rbp
.LBB28_16:                              # =>This Inner Loop Header: Depth=1
	testq	%rbp, %rbp
	je	.LBB28_21
# %bb.17:                               #   in Loop: Header=BB28_16 Depth=1
	movq	(%rbp), %rdx
	cmpb	$0, (%rdx)
	je	.LBB28_19
# %bb.18:                               #   in Loop: Header=BB28_16 Depth=1
	movl	$.L.str.10.61, %esi
	movq	%rbx, %rdi
	xorl	%eax, %eax
	callq	curl_mfprintf
	jmp	.LBB28_20
.LBB28_19:                              #   in Loop: Header=BB28_16 Depth=1
	movl	$.L.str.11.62, %esi
	movq	%rbx, %rdi
	xorl	%eax, %eax
	callq	curl_mfprintf
.LBB28_20:                              #   in Loop: Header=BB28_16 Depth=1
	movq	8(%rbp), %rbp
	jmp	.LBB28_16
.LBB28_21:
	movq	easysrc_clean(%rip), %rax
	testq	%rax, %rax
	je	.LBB28_25
# %bb.22:
	movq	(%rax), %rbp
.LBB28_24:                              # =>This Inner Loop Header: Depth=1
	testq	%rbp, %rbp
	je	.LBB28_25
# %bb.23:                               #   in Loop: Header=BB28_24 Depth=1
	movq	(%rbp), %rdx
	movl	$.L.str.10.61, %esi
	movq	%rbx, %rdi
	xorl	%eax, %eax
	callq	curl_mfprintf
	movq	8(%rbp), %rbp
	jmp	.LBB28_24
.LBB28_25:
	movq	$-32, %rbp
.LBB28_26:                              # =>This Inner Loop Header: Depth=1
	movq	srcend+32(%rbp), %rdx
	movl	$.L.str.9.60, %esi
	movq	%rbx, %rdi
	xorl	%eax, %eax
	callq	curl_mfprintf
	addq	$8, %rbp
	jne	.LBB28_26
# %bb.27:
	testb	%r12b, %r12b
	je	.LBB28_29
# %bb.28:
	movq	%rbx, %rdi
	callq	fclose
	jmp	.LBB28_29
.LBB28_30:
	movl	$.L.str.8.59, %esi
	movq	%r14, %rdi
	movq	%r15, %rdx
	xorl	%eax, %eax
	callq	warnf
.LBB28_29:
	popq	%rbx
	.cfi_def_cfa_offset 40
	popq	%r12
	.cfi_def_cfa_offset 32
	popq	%r14
	.cfi_def_cfa_offset 24
	popq	%r15
	.cfi_def_cfa_offset 16
	popq	%rbp
	.cfi_def_cfa_offset 8
	jmp	easysrc_free            # TAILCALL
.Lfunc_end28:
	.size	dumpeasysrc, .Lfunc_end28-dumpeasysrc
	.cfi_endproc
                                        # -- End function
	.globl	getfiletime             # -- Begin function getfiletime
	.type	getfiletime,@function
getfiletime:                            # @getfiletime
	.cfi_startproc
# %bb.0:
	pushq	%r14
	.cfi_def_cfa_offset 16
	pushq	%rbx
	.cfi_def_cfa_offset 24
	subq	$152, %rsp
	.cfi_def_cfa_offset 176
	.cfi_offset %rbx, -24
	.cfi_offset %r14, -16
	movq	%rsi, %r14
	leaq	8(%rsp), %rsi
	callq	stat
	cmpl	$-1, %eax
	je	.LBB29_2
# %bb.1:
	movq	96(%rsp), %rbx
	jmp	.LBB29_4
.LBB29_2:
	callq	__errno_location
	movl	(%rax), %edi
	movq	$-1, %rbx
	cmpl	$2, %edi
	je	.LBB29_4
# %bb.3:
	callq	strerror
	movl	$.L.str.73, %esi
	movq	%r14, %rdi
	movq	%rax, %rdx
	xorl	%eax, %eax
	callq	warnf
.LBB29_4:
	movq	%rbx, %rax
	addq	$152, %rsp
	.cfi_def_cfa_offset 24
	popq	%rbx
	.cfi_def_cfa_offset 16
	popq	%r14
	.cfi_def_cfa_offset 8
	retq
.Lfunc_end29:
	.size	getfiletime, .Lfunc_end29-getfiletime
	.cfi_endproc
                                        # -- End function
	.globl	setfiletime             # -- Begin function setfiletime
	.type	setfiletime,@function
setfiletime:                            # @setfiletime
	.cfi_startproc
# %bb.0:
	testq	%rdi, %rdi
	js	.LBB30_4
# %bb.1:
	pushq	%r15
	.cfi_def_cfa_offset 16
	pushq	%r14
	.cfi_def_cfa_offset 24
	pushq	%rbx
	.cfi_def_cfa_offset 32
	subq	$32, %rsp
	.cfi_def_cfa_offset 64
	.cfi_offset %rbx, -32
	.cfi_offset %r14, -24
	.cfi_offset %r15, -16
	movq	%rdx, %r14
	movq	%rsi, %r15
	movq	%rdi, %rbx
	movq	%rsp, %rsi
	movq	%rdi, 16(%rsi)
	movq	%rdi, (%rsi)
	xorl	%eax, %eax
	movq	%rax, 24(%rsi)
	movq	%rax, 8(%rsi)
	movq	%r15, %rdi
	callq	utimes
	testl	%eax, %eax
	je	.LBB30_3
# %bb.2:
	callq	__errno_location
	movl	(%rax), %edi
	callq	strerror
	movl	$.L.str.1.74, %esi
	movq	%r14, %rdi
	movq	%rbx, %rdx
	movq	%r15, %rcx
	movq	%rax, %r8
	xorl	%eax, %eax
	callq	warnf
.LBB30_3:
	addq	$32, %rsp
	.cfi_def_cfa_offset 32
	popq	%rbx
	.cfi_def_cfa_offset 24
	popq	%r14
	.cfi_def_cfa_offset 16
	popq	%r15
	.cfi_def_cfa_offset 8
.LBB30_4:
	retq
.Lfunc_end30:
	.size	setfiletime, .Lfunc_end30-setfiletime
	.cfi_endproc
                                        # -- End function
	.globl	tool_mime_stdin_read    # -- Begin function tool_mime_stdin_read
	.type	tool_mime_stdin_read,@function
tool_mime_stdin_read:                   # @tool_mime_stdin_read
	.cfi_startproc
# %bb.0:
	pushq	%r15
	.cfi_def_cfa_offset 16
	pushq	%r14
	.cfi_def_cfa_offset 24
	pushq	%r12
	.cfi_def_cfa_offset 32
	pushq	%rbx
	.cfi_def_cfa_offset 40
	pushq	%rax
	.cfi_def_cfa_offset 48
	.cfi_offset %rbx, -40
	.cfi_offset %r12, -32
	.cfi_offset %r14, -24
	.cfi_offset %r15, -16
	movq	%rcx, %r14
	movq	%rdx, %r12
	movq	%rdi, %r15
	movq	88(%rcx), %rbx
	testq	%rbx, %rbx
	js	.LBB31_5
# %bb.1:
	subq	96(%r14), %rbx
	jle	.LBB31_2
# %bb.3:
	movq	%r12, %rdi
	callq	curlx_uztoso
	cmpq	%rbx, %rax
	jle	.LBB31_5
# %bb.4:
	movq	%rbx, %rdi
	callq	curlx_sotouz
	movq	%rax, %r12
.LBB31_5:
	testq	%r12, %r12
	je	.LBB31_2
# %bb.6:
	movq	24(%r14), %rbx
	testq	%rbx, %rbx
	je	.LBB31_9
# %bb.7:
	movq	96(%r14), %rdi
	callq	curlx_sotouz
	addq	%rax, %rbx
	movq	%r15, %rdi
	movq	%rbx, %rsi
	movq	%r12, %rdx
	callq	memcpy
.LBB31_8:
	movq	%r12, %rdi
	callq	curlx_uztoso
	addq	%rax, 96(%r14)
	jmp	.LBB31_12
.LBB31_2:
	xorl	%r12d, %r12d
.LBB31_12:
	movq	%r12, %rax
	addq	$8, %rsp
	.cfi_def_cfa_offset 40
	popq	%rbx
	.cfi_def_cfa_offset 32
	popq	%r12
	.cfi_def_cfa_offset 24
	popq	%r14
	.cfi_def_cfa_offset 16
	popq	%r15
	.cfi_def_cfa_offset 8
	retq
.LBB31_9:
	.cfi_def_cfa_offset 48
	movq	stdin(%rip), %rcx
	movl	$1, %esi
	movq	%r15, %rdi
	movq	%r12, %rdx
	callq	fread
	movq	%rax, %r12
	movq	stdin(%rip), %rdi
	callq	ferror
	testl	%eax, %eax
	je	.LBB31_8
# %bb.10:
	movq	104(%r14), %r15
	movl	$268435456, %r12d       # imm = 0x10000000
	testq	%r15, %r15
	je	.LBB31_12
# %bb.11:
	callq	__errno_location
	movl	(%rax), %edi
	callq	strerror
	movl	$.L.str.77, %esi
	movq	%r15, %rdi
	movq	%rax, %rdx
	xorl	%eax, %eax
	callq	warnf
	movq	$0, 104(%r14)
	jmp	.LBB31_12
.Lfunc_end31:
	.size	tool_mime_stdin_read, .Lfunc_end31-tool_mime_stdin_read
	.cfi_endproc
                                        # -- End function
	.globl	curlx_uztoso            # -- Begin function curlx_uztoso
	.type	curlx_uztoso,@function
curlx_uztoso:                           # @curlx_uztoso
	.cfi_startproc
# %bb.0:
	movq	%rdi, %rax
	btrq	$63, %rax
	retq
.Lfunc_end32:
	.size	curlx_uztoso, .Lfunc_end32-curlx_uztoso
	.cfi_endproc
                                        # -- End function
	.globl	curlx_sotouz            # -- Begin function curlx_sotouz
	.type	curlx_sotouz,@function
curlx_sotouz:                           # @curlx_sotouz
	.cfi_startproc
# %bb.0:
	movq	%rdi, %rax
	retq
.Lfunc_end33:
	.size	curlx_sotouz, .Lfunc_end33-curlx_sotouz
	.cfi_endproc
                                        # -- End function
	.globl	tool_mime_stdin_seek    # -- Begin function tool_mime_stdin_seek
	.type	tool_mime_stdin_seek,@function
tool_mime_stdin_seek:                   # @tool_mime_stdin_seek
	.cfi_startproc
# %bb.0:
	pushq	%rbp
	.cfi_def_cfa_offset 16
	pushq	%r14
	.cfi_def_cfa_offset 24
	pushq	%rbx
	.cfi_def_cfa_offset 32
	.cfi_offset %rbx, -32
	.cfi_offset %r14, -24
	.cfi_offset %rbp, -16
	movq	%rsi, %rbx
	movq	%rdi, %r14
	cmpl	$1, %edx
	je	.LBB34_1
# %bb.2:
	cmpl	$2, %edx
	jne	.LBB34_5
# %bb.3:
	movl	$88, %eax
	jmp	.LBB34_4
.LBB34_1:
	movl	$96, %eax
.LBB34_4:
	addq	(%r14,%rax), %rbx
.LBB34_5:
	movl	$2, %ebp
	testq	%rbx, %rbx
	js	.LBB34_9
# %bb.6:
	cmpq	$0, 24(%r14)
	jne	.LBB34_8
# %bb.7:
	movq	stdin(%rip), %rdi
	movq	80(%r14), %rsi
	addq	%rbx, %rsi
	xorl	%edx, %edx
	callq	fseek
	testl	%eax, %eax
	jne	.LBB34_9
.LBB34_8:
	movq	%rbx, 96(%r14)
	xorl	%ebp, %ebp
.LBB34_9:
	movl	%ebp, %eax
	popq	%rbx
	.cfi_def_cfa_offset 24
	popq	%r14
	.cfi_def_cfa_offset 16
	popq	%rbp
	.cfi_def_cfa_offset 8
	retq
.Lfunc_end34:
	.size	tool_mime_stdin_seek, .Lfunc_end34-tool_mime_stdin_seek
	.cfi_endproc
                                        # -- End function
	.globl	tool2curlmime           # -- Begin function tool2curlmime
	.type	tool2curlmime,@function
tool2curlmime:                          # @tool2curlmime
	.cfi_startproc
# %bb.0:
	pushq	%r15
	.cfi_def_cfa_offset 16
	pushq	%r14
	.cfi_def_cfa_offset 24
	pushq	%r12
	.cfi_def_cfa_offset 32
	pushq	%rbx
	.cfi_def_cfa_offset 40
	pushq	%rax
	.cfi_def_cfa_offset 48
	.cfi_offset %rbx, -40
	.cfi_offset %r12, -32
	.cfi_offset %r14, -24
	.cfi_offset %r15, -16
	movq	%rdx, %r14
	movq	%rsi, %r12
	movq	%rdi, %rbx
	callq	curl_mime_init
	movq	%rax, (%r14)
	xorl	%r15d, %r15d
	testq	%rax, %rax
	je	.LBB35_1
# %bb.2:
	movq	72(%r12), %rsi
	movq	%rbx, %rdi
	movq	%rax, %rdx
	callq	tool2curlparts
	testl	%eax, %eax
	je	.LBB35_5
# %bb.3:
	movq	(%r14), %rdi
	movl	%eax, %r15d
	jmp	.LBB35_4
.LBB35_1:
	movl	$27, %r15d
	xorl	%edi, %edi
.LBB35_4:
	callq	curl_mime_free
	movq	$0, (%r14)
.LBB35_5:
	movl	%r15d, %eax
	addq	$8, %rsp
	.cfi_def_cfa_offset 40
	popq	%rbx
	.cfi_def_cfa_offset 32
	popq	%r12
	.cfi_def_cfa_offset 24
	popq	%r14
	.cfi_def_cfa_offset 16
	popq	%r15
	.cfi_def_cfa_offset 8
	retq
.Lfunc_end35:
	.size	tool2curlmime, .Lfunc_end35-tool2curlmime
	.cfi_endproc
                                        # -- End function
	.type	tool2curlparts,@function # -- Begin function tool2curlparts
tool2curlparts:                         # @tool2curlparts
	.cfi_startproc
# %bb.0:
	pushq	%rbp
	.cfi_def_cfa_offset 16
	pushq	%r15
	.cfi_def_cfa_offset 24
	pushq	%r14
	.cfi_def_cfa_offset 32
	pushq	%r13
	.cfi_def_cfa_offset 40
	pushq	%r12
	.cfi_def_cfa_offset 48
	pushq	%rbx
	.cfi_def_cfa_offset 56
	pushq	%rax
	.cfi_def_cfa_offset 64
	.cfi_offset %rbx, -56
	.cfi_offset %r12, -48
	.cfi_offset %r13, -40
	.cfi_offset %r14, -32
	.cfi_offset %r15, -24
	.cfi_offset %rbp, -16
	xorl	%ebp, %ebp
	movq	%rbp, (%rsp)
	testq	%rsi, %rsi
	je	.LBB36_26
# %bb.1:
	movq	%rdx, %rbx
	movq	%rsi, %r13
	movq	%rdi, %r15
	movq	16(%rsi), %rsi
	callq	tool2curlparts
	movl	%eax, %ebp
	testl	%eax, %eax
	je	.LBB36_2
.LBB36_26:
	movl	%ebp, %eax
	addq	$8, %rsp
	.cfi_def_cfa_offset 56
	popq	%rbx
	.cfi_def_cfa_offset 48
	popq	%r12
	.cfi_def_cfa_offset 40
	popq	%r13
	.cfi_def_cfa_offset 32
	popq	%r14
	.cfi_def_cfa_offset 24
	popq	%r15
	.cfi_def_cfa_offset 16
	popq	%rbp
	.cfi_def_cfa_offset 8
	retq
.LBB36_2:
	.cfi_def_cfa_offset 64
	movq	%rbx, %rdi
	callq	curl_mime_addpart
	testq	%rax, %rax
	je	.LBB36_3
# %bb.4:
	movq	%rax, %r14
	movq	40(%r13), %rbx
	movl	(%r13), %eax
	xorl	%r12d, %r12d
	decl	%eax
	cmpl	$5, %eax
	ja	.LBB36_17
# %bb.5:
	jmpq	*.LJTI36_0(,%rax,8)
.LBB36_10:
	movq	24(%r13), %rsi
	movq	%r14, %rdi
	callq	curl_mime_filedata
	movl	%eax, %ebp
	testl	%eax, %eax
	jne	.LBB36_26
# %bb.11:
	testq	%rbx, %rbx
	jne	.LBB36_17
# %bb.12:
	cmpl	$4, (%r13)
	jne	.LBB36_17
# %bb.13:
	movq	%r14, %rdi
	xorl	%esi, %esi
	jmp	.LBB36_20
.LBB36_3:
	movl	$27, %ebp
	jmp	.LBB36_26
.LBB36_6:
	movq	%rsp, %rdx
	movq	%r15, %rdi
	movq	%r13, %rsi
	callq	tool2curlmime
	movl	%eax, %ebp
	testl	%eax, %eax
	jne	.LBB36_26
# %bb.7:
	movq	(%rsp), %r15
	movq	%r14, %rdi
	movq	%r15, %rsi
	callq	curl_mime_subparts
	testl	%eax, %eax
	je	.LBB36_17
# %bb.8:
	movl	%eax, %ebp
	movq	%r15, %rdi
	callq	curl_mime_free
	jmp	.LBB36_26
.LBB36_9:
	movq	24(%r13), %rsi
	movq	%r14, %rdi
	movq	$-1, %rdx
	callq	curl_mime_data
	jmp	.LBB36_16
.LBB36_14:
	testq	%rbx, %rbx
	movl	$.L.str.7.78, %eax
	cmoveq	%rax, %rbx
.LBB36_15:
	movq	88(%r13), %rsi
	movl	$tool_mime_stdin_read, %edx
	movl	$tool_mime_stdin_seek, %ecx
	movq	%r14, %rdi
	xorl	%r8d, %r8d
	movq	%r13, %r9
	callq	curl_mime_data_cb
.LBB36_16:
	movl	%eax, %r12d
.LBB36_17:
	testl	%r12d, %r12d
	jne	.LBB36_21
# %bb.18:
	testq	%rbx, %rbx
	je	.LBB36_21
# %bb.19:
	movq	%r14, %rdi
	movq	%rbx, %rsi
.LBB36_20:
	callq	curl_mime_filename
	movl	%eax, %r12d
.LBB36_21:
	movl	%r12d, %ebp
	testl	%r12d, %r12d
	jne	.LBB36_26
# %bb.22:
	movq	48(%r13), %rsi
	movq	%r14, %rdi
	callq	curl_mime_type
	movl	%eax, %ebp
	testl	%eax, %eax
	jne	.LBB36_26
# %bb.23:
	movq	64(%r13), %rsi
	movq	%r14, %rdi
	xorl	%edx, %edx
	callq	curl_mime_headers
	movl	%eax, %ebp
	testl	%eax, %eax
	jne	.LBB36_26
# %bb.24:
	movq	56(%r13), %rsi
	movq	%r14, %rdi
	callq	curl_mime_encoder
	movl	%eax, %ebp
	testl	%eax, %eax
	jne	.LBB36_26
# %bb.25:
	movq	32(%r13), %rsi
	movq	%r14, %rdi
	callq	curl_mime_name
	movl	%eax, %ebp
	jmp	.LBB36_26
.Lfunc_end36:
	.size	tool2curlparts, .Lfunc_end36-tool2curlparts
	.cfi_endproc
	.section	.rodata,"a",@progbits
	.p2align	3
.LJTI36_0:
	.quad	.LBB36_6
	.quad	.LBB36_9
	.quad	.LBB36_10
	.quad	.LBB36_10
	.quad	.LBB36_14
	.quad	.LBB36_15
                                        # -- End function
	.text
	.globl	formparse               # -- Begin function formparse
	.type	formparse,@function
formparse:                              # @formparse
	.cfi_startproc
# %bb.0:
	pushq	%rbp
	.cfi_def_cfa_offset 16
	pushq	%r15
	.cfi_def_cfa_offset 24
	pushq	%r14
	.cfi_def_cfa_offset 32
	pushq	%r13
	.cfi_def_cfa_offset 40
	pushq	%r12
	.cfi_def_cfa_offset 48
	pushq	%rbx
	.cfi_def_cfa_offset 56
	subq	$88, %rsp
	.cfi_def_cfa_offset 144
	.cfi_offset %rbx, -56
	.cfi_offset %r12, -48
	.cfi_offset %r13, -40
	.cfi_offset %r14, -32
	.cfi_offset %r15, -24
	.cfi_offset %rbp, -16
	movl	%r8d, %r13d
	movq	%rcx, %r12
	movq	%rdx, %r15
	movq	%rsi, %rbp
	movq	%rdi, %r14
	xorl	%eax, %eax
	movq	%rax, 32(%rsp)
	movq	%rax, 72(%rsp)
	movq	%rax, 64(%rsp)
	movq	%rax, (%rsp)
	cmpq	%rax, (%rcx)
	jne	.LBB37_3
# %bb.1:
	movl	$1, %edi
	movl	$112, %esi
	callq	calloc
	testq	%rax, %rax
	je	.LBB37_87
# %bb.2:
	movl	$1, (%rax)
	movq	%rax, (%r15)
	movq	%rax, (%r12)
.LBB37_3:
	movq	%rbp, %rdi
	callq	strdup
	testq	%rax, %rax
	je	.LBB37_4
# %bb.5:
	movq	%rax, %rbx
	movq	%rax, %rdi
	movl	$61, %esi
	callq	strchr
	movq	%rax, 48(%rsp)
	testq	%rax, %rax
	je	.LBB37_83
# %bb.6:
	movq	%rax, %rbp
	movq	%r12, 56(%rsp)          # 8-byte Spill
	movq	%r14, 16(%rsp)          # 8-byte Spill
	xorl	%ecx, %ecx
	cmpq	%rbx, %rax
	movq	%rbx, 8(%rsp)           # 8-byte Spill
	cmovaq	%rbx, %rcx
	leaq	1(%rax), %r14
	movq	%r14, 48(%rsp)
	movb	$0, (%rax)
	movb	1(%rax), %r12b
	cmpb	$40, %r12b
	movq	%rcx, 80(%rsp)          # 8-byte Spill
	jne	.LBB37_15
# %bb.7:
	testb	%r13b, %r13b
	jne	.LBB37_15
# %bb.8:
	movq	%rsp, %rax
	leaq	48(%rsp), %rdx
	leaq	40(%rsp), %rcx
	leaq	32(%rsp), %r8
	movq	16(%rsp), %rbp          # 8-byte Reload
	movq	%rbp, %rdi
	movl	$0, %esi
	movl	$0, %r9d
	pushq	%rax
	.cfi_adjust_cfa_offset 8
	pushq	$0
	.cfi_adjust_cfa_offset 8
	callq	get_param_part
	addq	$16, %rsp
	.cfi_adjust_cfa_offset -16
	testl	%eax, %eax
	js	.LBB37_9
# %bb.10:
	movq	56(%rsp), %rbx          # 8-byte Reload
	movq	(%rbx), %rdi
	callq	tool_mime_new_parts
	testq	%rax, %rax
	je	.LBB37_11
# %bb.12:
	movq	%rax, %r13
	movq	%rax, (%rbx)
	movq	(%rsp), %rax
	movq	%rax, 64(%r13)
	movq	$0, (%rsp)
	movq	32(%rsp), %rdi
	testq	%rdi, %rdi
	movq	8(%rsp), %r12           # 8-byte Reload
	je	.LBB37_80
# %bb.13:
	callq	strdup
	movq	%rax, 48(%r13)
	testq	%rax, %rax
	jne	.LBB37_80
# %bb.14:
	movq	1232(%rbp), %rdi
	movl	$.L.str.1.79, %esi
	xorl	%eax, %eax
	callq	warnf
	movq	(%rsp), %rdi
	callq	curl_slist_free_all
	movq	%r12, %rdi
	callq	myFree
	movl	$5, %eax
	jmp	.LBB37_86
.LBB37_4:
	movq	1232(%r14), %rdi
	movl	$.L.str.1.79, %esi
	xorl	%eax, %eax
	callq	warnf
	xorl	%edi, %edi
	callq	curl_slist_free_all
	movl	$2, %eax
	jmp	.LBB37_86
.LBB37_83:
	movq	1232(%r14), %rdi
	movl	$.L.str.6.84, %esi
	xorl	%eax, %eax
	callq	warnf
	movq	%rbx, %rdi
	callq	myFree
	movl	$23, %eax
	jmp	.LBB37_86
.LBB37_15:
	testq	%rcx, %rcx
	je	.LBB37_16
.LBB37_20:
	cmpb	$64, %r12b
	jne	.LBB37_47
# %bb.21:
	testb	%r13b, %r13b
	jne	.LBB37_47
# %bb.22:
	addq	$2, %rbp
	leaq	48(%rsp), %rdx
	movq	%rbp, (%rdx)
	movq	%rsp, %r15
	leaq	64(%rsp), %r14
	leaq	40(%rsp), %rcx
	leaq	32(%rsp), %r8
	leaq	72(%rsp), %r9
	movq	16(%rsp), %rdi          # 8-byte Reload
	movl	$44, %esi
	pushq	%r15
	.cfi_adjust_cfa_offset 8
	pushq	%r14
	.cfi_adjust_cfa_offset 8
	callq	get_param_part
	addq	$16, %rsp
	.cfi_adjust_cfa_offset -16
	testl	%eax, %eax
	movq	8(%rsp), %r12           # 8-byte Reload
	js	.LBB37_45
# %bb.23:                               # %.preheader
	movl	%eax, %ebp
	xorl	%r13d, %r13d
.LBB37_24:                              # =>This Inner Loop Header: Depth=1
	testq	%r13, %r13
	jne	.LBB37_28
# %bb.25:                               #   in Loop: Header=BB37_24 Depth=1
	movq	56(%rsp), %rax          # 8-byte Reload
	movq	(%rax), %r13
	cmpl	$44, %ebp
	jne	.LBB37_28
# %bb.26:                               #   in Loop: Header=BB37_24 Depth=1
	movq	%r13, %rdi
	callq	tool_mime_new_parts
	movq	%rax, %r13
	testq	%rax, %rax
	je	.LBB37_27
.LBB37_28:                              #   in Loop: Header=BB37_24 Depth=1
	movq	40(%rsp), %rsi
	movq	%r13, %rdi
	movl	$1, %edx
	leaq	28(%rsp), %rcx
	callq	tool_mime_new_filedata
	testq	%rax, %rax
	je	.LBB37_29
# %bb.30:                               #   in Loop: Header=BB37_24 Depth=1
	movq	%rax, %rbx
	movq	(%rsp), %rax
	movq	%rax, 64(%rbx)
	movq	$0, (%rsp)
	movq	16(%rsp), %rax          # 8-byte Reload
	movq	1232(%rax), %rdi
	movq	%rdi, 104(%rbx)
	cmpl	$26, 28(%rsp)
	jne	.LBB37_34
# %bb.31:                               #   in Loop: Header=BB37_24 Depth=1
	cmpq	$0, 88(%rbx)
	jg	.LBB37_32
# %bb.33:                               #   in Loop: Header=BB37_24 Depth=1
	movq	24(%rbx), %rdi
	callq	myFree
	movq	$0, 24(%rbx)
	movq	$-1, 88(%rbx)
	movl	$0, 28(%rsp)
.LBB37_34:                              #   in Loop: Header=BB37_24 Depth=1
	movq	72(%rsp), %rdi
	testq	%rdi, %rdi
	je	.LBB37_37
# %bb.35:                               #   in Loop: Header=BB37_24 Depth=1
	callq	strdup
	movq	%rax, 40(%rbx)
	testq	%rax, %rax
	je	.LBB37_36
.LBB37_37:                              #   in Loop: Header=BB37_24 Depth=1
	movq	32(%rsp), %rdi
	testq	%rdi, %rdi
	je	.LBB37_40
# %bb.38:                               #   in Loop: Header=BB37_24 Depth=1
	callq	strdup
	movq	%rax, 48(%rbx)
	testq	%rax, %rax
	je	.LBB37_39
.LBB37_40:                              #   in Loop: Header=BB37_24 Depth=1
	movq	64(%rsp), %rdi
	testq	%rdi, %rdi
	je	.LBB37_43
# %bb.41:                               #   in Loop: Header=BB37_24 Depth=1
	callq	strdup
	movq	%rax, 56(%rbx)
	testq	%rax, %rax
	je	.LBB37_42
.LBB37_43:                              #   in Loop: Header=BB37_24 Depth=1
	testl	%ebp, %ebp
	je	.LBB37_46
# %bb.44:                               #   in Loop: Header=BB37_24 Depth=1
	incq	48(%rsp)
	movq	16(%rsp), %rdi          # 8-byte Reload
	movl	$44, %esi
	leaq	48(%rsp), %rdx
	leaq	40(%rsp), %rcx
	leaq	32(%rsp), %r8
	leaq	72(%rsp), %r9
	pushq	%r15
	.cfi_adjust_cfa_offset 8
	pushq	%r14
	.cfi_adjust_cfa_offset 8
	callq	get_param_part
	addq	$16, %rsp
	.cfi_adjust_cfa_offset -16
	movl	%eax, %ebp
	testl	%eax, %eax
	jns	.LBB37_24
.LBB37_45:
	movq	%r12, %rdi
	callq	myFree
	movl	$7, %eax
	jmp	.LBB37_86
.LBB37_87:
	movq	$0, (%r15)
	movq	1232(%r14), %rdi
	movl	$.L.str.1.79, %esi
	xorl	%eax, %eax
	callq	warnf
	xorl	%edi, %edi
	callq	curl_slist_free_all
	movl	$1, %eax
	jmp	.LBB37_86
.LBB37_47:
	cmpb	$60, %r12b
	jne	.LBB37_60
# %bb.48:
	testb	%r13b, %r13b
	jne	.LBB37_60
# %bb.49:
	addq	$2, %rbp
	leaq	48(%rsp), %rdx
	movq	%rbp, (%rdx)
	movq	%rsp, %rax
	leaq	64(%rsp), %rbx
	leaq	40(%rsp), %rcx
	leaq	32(%rsp), %r8
	movq	16(%rsp), %rbp          # 8-byte Reload
	movq	%rbp, %rdi
	movl	$0, %esi
	movl	$0, %r9d
	pushq	%rax
	.cfi_adjust_cfa_offset 8
	pushq	%rbx
	.cfi_adjust_cfa_offset 8
	callq	get_param_part
	addq	$16, %rsp
	.cfi_adjust_cfa_offset -16
	testl	%eax, %eax
	js	.LBB37_50
# %bb.51:
	movl	%eax, %r12d
	movq	56(%rsp), %rax          # 8-byte Reload
	movq	(%rax), %rdi
	movq	40(%rsp), %rsi
	leaq	28(%rsp), %rcx
	xorl	%edx, %edx
	callq	tool_mime_new_filedata
	testq	%rax, %rax
	je	.LBB37_52
# %bb.53:
	movq	%rax, %r13
	movq	(%rsp), %rax
	movq	%rax, 64(%r13)
	movq	$0, (%rsp)
	movq	1232(%rbp), %rdi
	movq	%rdi, 104(%r13)
	cmpl	$26, 28(%rsp)
	jne	.LBB37_57
# %bb.54:
	cmpq	$0, 88(%r13)
	jle	.LBB37_56
# %bb.55:
	movl	$.L.str.4.82, %esi
	xorl	%eax, %eax
	callq	warnf
	movq	8(%rsp), %rdi           # 8-byte Reload
	callq	myFree
	movl	$16, %eax
	jmp	.LBB37_86
.LBB37_9:
	movq	8(%rsp), %rdi           # 8-byte Reload
	callq	myFree
	movl	$3, %eax
	jmp	.LBB37_86
.LBB37_16:
	movl	$.L.str.2.80, %esi
	movq	%r14, %rdi
	callq	strcmp
	testl	%eax, %eax
	jne	.LBB37_20
# %bb.17:
	testb	%r13b, %r13b
	jne	.LBB37_20
# %bb.18:
	movq	56(%rsp), %rcx          # 8-byte Reload
	movq	(%rcx), %rax
	cmpq	(%r15), %rax
	je	.LBB37_19
# %bb.84:
	movq	8(%rax), %rax
	movq	%rax, (%rcx)
	movq	8(%rsp), %r12           # 8-byte Reload
	jmp	.LBB37_85
.LBB37_11:
	movq	1232(%rbp), %rdi
	movl	$.L.str.1.79, %esi
	xorl	%eax, %eax
	callq	warnf
	movq	(%rsp), %rdi
	callq	curl_slist_free_all
	movq	8(%rsp), %rdi           # 8-byte Reload
	callq	myFree
	movl	$4, %eax
	jmp	.LBB37_86
.LBB37_60:
	testb	%r13b, %r13b
	je	.LBB37_62
# %bb.61:
	movq	%r14, 40(%rsp)
	xorl	%r12d, %r12d
	jmp	.LBB37_64
.LBB37_62:
	movq	%rsp, %rax
	leaq	64(%rsp), %rbp
	leaq	48(%rsp), %rdx
	leaq	40(%rsp), %rcx
	leaq	32(%rsp), %r8
	leaq	72(%rsp), %r9
	movq	16(%rsp), %rdi          # 8-byte Reload
	movl	$0, %esi
	pushq	%rax
	.cfi_adjust_cfa_offset 8
	pushq	%rbp
	.cfi_adjust_cfa_offset 8
	callq	get_param_part
	addq	$16, %rsp
	.cfi_adjust_cfa_offset -16
	testl	%eax, %eax
	js	.LBB37_88
# %bb.63:
	movl	%eax, %r12d
	movq	40(%rsp), %r14
.LBB37_64:
	movq	56(%rsp), %rax          # 8-byte Reload
	movq	(%rax), %r15
	movq	%r14, %rdi
	callq	strdup
	testq	%rax, %rax
	movq	16(%rsp), %rbp          # 8-byte Reload
	je	.LBB37_70
# %bb.65:
	movq	%rax, %rbx
	movl	$1, %edi
	movl	$112, %esi
	callq	calloc
	testq	%rax, %rax
	je	.LBB37_69
# %bb.66:
	movq	%rax, %r13
	movl	$2, (%rax)
	movq	%r15, 8(%rax)
	testq	%r15, %r15
	je	.LBB37_68
# %bb.67:
	movq	72(%r15), %rax
	movq	%rax, 16(%r13)
	movq	%r13, 72(%r15)
.LBB37_68:
	movq	%rbx, 24(%r13)
	movq	(%rsp), %rax
	movq	%rax, 64(%r13)
	movq	$0, (%rsp)
.LBB37_57:
	movq	72(%rsp), %rdi
	testq	%rdi, %rdi
	je	.LBB37_71
# %bb.58:
	callq	strdup
	movq	%rax, 40(%r13)
	testq	%rax, %rax
	je	.LBB37_59
.LBB37_71:
	movq	32(%rsp), %rdi
	testq	%rdi, %rdi
	je	.LBB37_74
# %bb.72:
	callq	strdup
	movq	%rax, 48(%r13)
	testq	%rax, %rax
	je	.LBB37_73
.LBB37_74:
	movq	64(%rsp), %rdi
	testq	%rdi, %rdi
	je	.LBB37_77
# %bb.75:
	callq	strdup
	movq	%rax, 56(%r13)
	testq	%rax, %rax
	je	.LBB37_76
.LBB37_77:
	testl	%r12d, %r12d
	je	.LBB37_79
# %bb.78:
	movq	48(%rsp), %rdx
	movb	%r12b, (%rdx)
	movq	1232(%rbp), %rdi
	movl	$.L.str.5.83, %esi
	xorl	%eax, %eax
	callq	warnf
.LBB37_79:
	movq	8(%rsp), %r12           # 8-byte Reload
	jmp	.LBB37_80
.LBB37_50:
	movq	8(%rsp), %rdi           # 8-byte Reload
	callq	myFree
	movl	$14, %eax
	jmp	.LBB37_86
.LBB37_19:
	movq	16(%rsp), %rax          # 8-byte Reload
	movq	1232(%rax), %rdi
	movl	$.L.str.3.81, %esi
	xorl	%eax, %eax
	callq	warnf
	movq	8(%rsp), %rdi           # 8-byte Reload
	callq	myFree
	movl	$6, %eax
	jmp	.LBB37_86
.LBB37_29:
	movq	16(%rsp), %rax          # 8-byte Reload
	movq	1232(%rax), %rdi
	movl	$.L.str.1.79, %esi
	xorl	%eax, %eax
	callq	warnf
	movq	(%rsp), %rdi
	callq	curl_slist_free_all
	movq	%r12, %rdi
	callq	myFree
	movl	$9, %eax
	jmp	.LBB37_86
.LBB37_52:
	movq	1232(%rbp), %rdi
	movl	$.L.str.1.79, %esi
	xorl	%eax, %eax
	callq	warnf
	movq	(%rsp), %rdi
	callq	curl_slist_free_all
	movq	8(%rsp), %rdi           # 8-byte Reload
	callq	myFree
	movl	$15, %eax
	jmp	.LBB37_86
.LBB37_46:
	movq	56(%rsp), %rax          # 8-byte Reload
	movq	(%rax), %rax
	movq	72(%rax), %r13
	movq	16(%rsp), %rbp          # 8-byte Reload
.LBB37_80:
	movq	80(%rsp), %rdi          # 8-byte Reload
	testq	%rdi, %rdi
	je	.LBB37_85
# %bb.81:
	callq	strdup
	movq	%rax, 32(%r13)
	testq	%rax, %rax
	je	.LBB37_82
.LBB37_85:
	movq	%r12, %rdi
	callq	myFree
	xorl	%eax, %eax
.LBB37_86:
	addq	$88, %rsp
	.cfi_def_cfa_offset 56
	popq	%rbx
	.cfi_def_cfa_offset 48
	popq	%r12
	.cfi_def_cfa_offset 40
	popq	%r13
	.cfi_def_cfa_offset 32
	popq	%r14
	.cfi_def_cfa_offset 24
	popq	%r15
	.cfi_def_cfa_offset 16
	popq	%rbp
	.cfi_def_cfa_offset 8
	retq
.LBB37_82:
	.cfi_def_cfa_offset 144
	movq	1232(%rbp), %rdi
	movl	$.L.str.1.79, %esi
	xorl	%eax, %eax
	callq	warnf
	movq	(%rsp), %rdi
	callq	curl_slist_free_all
	movq	%r12, %rdi
	callq	myFree
	movl	$22, %eax
	jmp	.LBB37_86
.LBB37_88:
	movq	8(%rsp), %rdi           # 8-byte Reload
	callq	myFree
	movl	$17, %eax
	jmp	.LBB37_86
.LBB37_69:
	movq	%rbx, %rdi
	callq	myFree
.LBB37_70:
	movq	1232(%rbp), %rdi
	movl	$.L.str.1.79, %esi
	xorl	%eax, %eax
	callq	warnf
	movq	(%rsp), %rdi
	callq	curl_slist_free_all
	movq	8(%rsp), %rdi           # 8-byte Reload
	callq	myFree
	movl	$18, %eax
	jmp	.LBB37_86
.LBB37_36:
	movq	16(%rsp), %rax          # 8-byte Reload
	movq	1232(%rax), %rdi
	movl	$.L.str.1.79, %esi
	xorl	%eax, %eax
	callq	warnf
	movq	(%rsp), %rdi
	callq	curl_slist_free_all
	movq	%r12, %rdi
	callq	myFree
	movl	$11, %eax
	jmp	.LBB37_86
.LBB37_39:
	movq	16(%rsp), %rax          # 8-byte Reload
	movq	1232(%rax), %rdi
	movl	$.L.str.1.79, %esi
	xorl	%eax, %eax
	callq	warnf
	movq	(%rsp), %rdi
	callq	curl_slist_free_all
	movq	%r12, %rdi
	callq	myFree
	movl	$12, %eax
	jmp	.LBB37_86
.LBB37_42:
	movq	16(%rsp), %rax          # 8-byte Reload
	movq	1232(%rax), %rdi
	movl	$.L.str.1.79, %esi
	xorl	%eax, %eax
	callq	warnf
	movq	(%rsp), %rdi
	callq	curl_slist_free_all
	movq	%r12, %rdi
	callq	myFree
	movl	$13, %eax
	jmp	.LBB37_86
.LBB37_59:
	movq	1232(%rbp), %rdi
	movl	$.L.str.1.79, %esi
	xorl	%eax, %eax
	callq	warnf
	movq	(%rsp), %rdi
	callq	curl_slist_free_all
	movq	8(%rsp), %rdi           # 8-byte Reload
	callq	myFree
	movl	$19, %eax
	jmp	.LBB37_86
.LBB37_32:
	movl	$.L.str.4.82, %esi
	xorl	%eax, %eax
	callq	warnf
	movq	%r12, %rdi
	callq	myFree
	movl	$10, %eax
	jmp	.LBB37_86
.LBB37_73:
	movq	1232(%rbp), %rdi
	movl	$.L.str.1.79, %esi
	xorl	%eax, %eax
	callq	warnf
	movq	(%rsp), %rdi
	callq	curl_slist_free_all
	movq	8(%rsp), %rdi           # 8-byte Reload
	callq	myFree
	movl	$20, %eax
	jmp	.LBB37_86
.LBB37_76:
	movq	1232(%rbp), %rdi
	movl	$.L.str.1.79, %esi
	xorl	%eax, %eax
	callq	warnf
	movq	(%rsp), %rdi
	callq	curl_slist_free_all
	movq	8(%rsp), %rdi           # 8-byte Reload
	callq	myFree
	movl	$21, %eax
	jmp	.LBB37_86
.LBB37_56:
	movq	24(%r13), %rdi
	callq	myFree
	movq	$0, 24(%r13)
	movq	$-1, 88(%r13)
	movl	$0, 28(%rsp)
	jmp	.LBB37_57
.LBB37_27:
	movq	16(%rsp), %rax          # 8-byte Reload
	movq	1232(%rax), %rdi
	movl	$.L.str.1.79, %esi
	xorl	%eax, %eax
	callq	warnf
	movq	(%rsp), %rdi
	callq	curl_slist_free_all
	movq	%r12, %rdi
	callq	myFree
	movl	$8, %eax
	jmp	.LBB37_86
.Lfunc_end37:
	.size	formparse, .Lfunc_end37-formparse
	.cfi_endproc
                                        # -- End function
	.type	get_param_part,@function # -- Begin function get_param_part
get_param_part:                         # @get_param_part
	.cfi_startproc
# %bb.0:
	pushq	%rbp
	.cfi_def_cfa_offset 16
	pushq	%r15
	.cfi_def_cfa_offset 24
	pushq	%r14
	.cfi_def_cfa_offset 32
	pushq	%r13
	.cfi_def_cfa_offset 40
	pushq	%r12
	.cfi_def_cfa_offset 48
	pushq	%rbx
	.cfi_def_cfa_offset 56
	subq	$1368, %rsp             # imm = 0x558
	.cfi_def_cfa_offset 1424
	.cfi_offset %rbx, -56
	.cfi_offset %r12, -48
	.cfi_offset %r13, -40
	.cfi_offset %r14, -32
	.cfi_offset %r15, -24
	.cfi_offset %rbp, -16
	movq	%r9, %rbx
	movq	%rcx, %r15
	movl	%esi, %r13d
	movq	%rdi, %r12
	movq	%rdx, 104(%rsp)         # 8-byte Spill
	movq	(%rdx), %rbp
	movq	%rbp, (%rsp)
	xorps	%xmm0, %xmm0
	movaps	%xmm0, 352(%rsp)
	movaps	%xmm0, 336(%rsp)
	movaps	%xmm0, 320(%rsp)
	movaps	%xmm0, 304(%rsp)
	movaps	%xmm0, 288(%rsp)
	movaps	%xmm0, 272(%rsp)
	movaps	%xmm0, 256(%rsp)
	movaps	%xmm0, 240(%rsp)
	movaps	%xmm0, 224(%rsp)
	movaps	%xmm0, 208(%rsp)
	movaps	%xmm0, 192(%rsp)
	movaps	%xmm0, 176(%rsp)
	movaps	%xmm0, 160(%rsp)
	movaps	%xmm0, 144(%rsp)
	movaps	%xmm0, 128(%rsp)
	movaps	%xmm0, 112(%rsp)
	testq	%r8, %r8
	je	.LBB38_2
# %bb.1:
	movq	$0, (%r8)
.LBB38_2:
	movq	%r8, 80(%rsp)           # 8-byte Spill
	movq	1432(%rsp), %rax
	testq	%rbx, %rbx
	je	.LBB38_4
# %bb.3:
	movq	$0, (%rbx)
.LBB38_4:
	movq	1424(%rsp), %rcx
	testq	%rax, %rax
	je	.LBB38_6
# %bb.5:
	movq	$0, (%rax)
.LBB38_6:
	testq	%rcx, %rcx
	je	.LBB38_8
# %bb.7:
	movq	$0, (%rcx)
.LBB38_8:
	movzbl	(%rbp), %edi
	callq	Curl_isspace
	testl	%eax, %eax
	movq	%rbx, 40(%rsp)          # 8-byte Spill
	je	.LBB38_12
# %bb.9:                                # %.preheader17
	incq	%rbp
.LBB38_10:                              # =>This Inner Loop Header: Depth=1
	movq	%rbp, (%rsp)
	movzbl	(%rbp), %edi
	callq	Curl_isspace
	incq	%rbp
	testl	%eax, %eax
	jne	.LBB38_10
# %bb.11:                               # %.loopexit18
	decq	%rbp
.LBB38_12:
	movsbl	%r13b, %ecx
	movq	%rsp, %rsi
	leaq	8(%rsp), %r14
	movq	%r12, %rdi
	movq	%r14, %rdx
	movl	%ecx, 20(%rsp)          # 4-byte Spill
	callq	get_param_word
	movq	%rax, (%r15)
	movq	(%r14), %rbx
	cmpq	%rbp, %rax
	movl	%r13d, 52(%rsp)         # 4-byte Spill
	jne	.LBB38_13
# %bb.14:
	cmpq	%rbp, %rbx
	jbe	.LBB38_13
# %bb.15:                               # %.preheader14
	decq	%rbx
	movq	40(%rsp), %rbp          # 8-byte Reload
	movq	1424(%rsp), %r14
.LBB38_16:                              # =>This Inner Loop Header: Depth=1
	movzbl	(%rbx), %edi
	callq	Curl_isspace
	testl	%eax, %eax
	je	.LBB38_18
# %bb.17:                               #   in Loop: Header=BB38_16 Depth=1
	movq	%rbx, 8(%rsp)
	cmpq	(%r15), %rbx
	leaq	-1(%rbx), %rbx
	ja	.LBB38_16
.LBB38_18:                              # %..loopexit15_crit_edge
	incq	%rbx
	jmp	.LBB38_19
.LBB38_13:
	movq	40(%rsp), %rbp          # 8-byte Reload
	movq	1424(%rsp), %r14
.LBB38_19:
	movq	(%rsp), %rax
	movzbl	(%rax), %r13d
	movb	$0, (%rbx)
	xorl	%eax, %eax
	cmpl	$59, %r13d
	jne	.LBB38_20
# %bb.21:
	movq	%rax, 64(%rsp)          # 8-byte Spill
	xorl	%eax, %eax
	movq	%rax, 72(%rsp)          # 8-byte Spill
	xorl	%eax, %eax
	movq	%rax, 56(%rsp)          # 8-byte Spill
	xorl	%r14d, %r14d
	xorl	%eax, %eax
	movq	%rax, 24(%rsp)          # 8-byte Spill
	movl	52(%rsp), %r13d         # 4-byte Reload
	movq	%r12, 32(%rsp)          # 8-byte Spill
.LBB38_22:                              # =>This Loop Header: Depth=1
                                        #     Child Loop BB38_26 Depth 2
                                        #     Child Loop BB38_30 Depth 2
                                        #     Child Loop BB38_39 Depth 2
                                        #     Child Loop BB38_42 Depth 2
                                        #     Child Loop BB38_52 Depth 2
                                        #     Child Loop BB38_55 Depth 2
                                        #     Child Loop BB38_60 Depth 2
                                        #     Child Loop BB38_63 Depth 2
                                        #     Child Loop BB38_69 Depth 2
                                        #       Child Loop BB38_70 Depth 3
                                        #         Child Loop BB38_73 Depth 4
                                        #     Child Loop BB38_100 Depth 2
                                        #     Child Loop BB38_103 Depth 2
                                        #     Child Loop BB38_108 Depth 2
	movq	(%rsp), %rax
	leaq	1(%rax), %rcx
	movq	%rcx, (%rsp)
	movzbl	1(%rax), %edi
	callq	Curl_isspace
	testl	%eax, %eax
	jne	.LBB38_22
# %bb.23:                               #   in Loop: Header=BB38_22 Depth=1
	testq	%r14, %r14
	je	.LBB38_24
.LBB38_35:                              #   in Loop: Header=BB38_22 Depth=1
	movq	(%rsp), %rsi
	movl	$.L.str.11.89, %edi
	movl	$9, %edx
	callq	curl_strnequal
	testl	%eax, %eax
	je	.LBB38_46
# %bb.36:                               #   in Loop: Header=BB38_22 Depth=1
	testq	%r14, %r14
	je	.LBB38_38
# %bb.37:                               #   in Loop: Header=BB38_22 Depth=1
	movb	$0, (%r14)
.LBB38_38:                              #   in Loop: Header=BB38_22 Depth=1
	movq	(%rsp), %rcx
	addq	$9, %rcx
.LBB38_39:                              #   Parent Loop BB38_22 Depth=1
                                        # =>  This Inner Loop Header: Depth=2
	movq	%rcx, (%rsp)
	movzbl	(%rcx), %edi
	callq	Curl_isspace
	movq	(%rsp), %rbx
	leaq	1(%rbx), %rcx
	testl	%eax, %eax
	jne	.LBB38_39
# %bb.40:                               #   in Loop: Header=BB38_22 Depth=1
	movq	%r12, %rdi
	movq	%rsp, %rsi
	leaq	8(%rsp), %rdx
	movl	20(%rsp), %ecx          # 4-byte Reload
	callq	get_param_word
	movq	%rax, %rcx
	movq	%rax, 72(%rsp)          # 8-byte Spill
	cmpq	%rbx, %rax
	je	.LBB38_41
.LBB38_45:                              #   in Loop: Header=BB38_22 Depth=1
	movq	(%rsp), %rax
	movb	(%rax), %bpl
	movq	8(%rsp), %rax
	movb	$0, (%rax)
.LBB38_114:                             #   in Loop: Header=BB38_22 Depth=1
	xorl	%r14d, %r14d
.LBB38_115:                             #   in Loop: Header=BB38_22 Depth=1
	cmpb	$59, %bpl
	je	.LBB38_22
	jmp	.LBB38_116
.LBB38_24:                              #   in Loop: Header=BB38_22 Depth=1
	movq	(%rsp), %rsi
	movl	$.L.str.8.86, %edi
	movl	$5, %edx
	callq	curl_strnequal
	testl	%eax, %eax
	je	.LBB38_35
# %bb.25:                               #   in Loop: Header=BB38_22 Depth=1
	movq	(%rsp), %rbx
	addq	$5, %rbx
.LBB38_26:                              #   Parent Loop BB38_22 Depth=1
                                        # =>  This Inner Loop Header: Depth=2
	movq	%rbx, (%rsp)
	movzbl	(%rbx), %edi
	callq	Curl_isspace
	movq	(%rsp), %rdi
	leaq	1(%rdi), %rbx
	testl	%eax, %eax
	jne	.LBB38_26
# %bb.27:                               #   in Loop: Header=BB38_22 Depth=1
	movl	$.L.str.9.87, %esi
	movq	%rdi, 64(%rsp)          # 8-byte Spill
	leaq	240(%rsp), %rbp
	movq	%rbp, %rdx
	leaq	112(%rsp), %r14
	movq	%r14, %rcx
	xorl	%eax, %eax
	callq	__isoc99_sscanf
	cmpl	$2, %eax
	jne	.LBB38_28
# %bb.29:                               #   in Loop: Header=BB38_22 Depth=1
	movq	%rbp, %rdi
	callq	strlen
	movq	%rax, %rbp
	movq	%r14, %rdi
	callq	strlen
	addq	%rbp, %rbx
	addq	%rax, %rbx
	movq	%rbx, %r14
.LBB38_30:                              #   Parent Loop BB38_22 Depth=1
                                        # =>  This Inner Loop Header: Depth=2
	movq	%rbx, (%rsp)
	movzbl	(%rbx), %ebp
	testl	%ebp, %ebp
	je	.LBB38_115
# %bb.31:                               #   in Loop: Header=BB38_30 Depth=2
	cmpb	$59, %bpl
	je	.LBB38_115
# %bb.32:                               #   in Loop: Header=BB38_30 Depth=2
	cmpb	%r13b, %bpl
	je	.LBB38_33
# %bb.34:                               #   in Loop: Header=BB38_30 Depth=2
	movl	%ebp, %edi
	callq	Curl_isspace
	movq	(%rsp), %rbx
	incq	%rbx
	testl	%eax, %eax
	cmoveq	%rbx, %r14
	jmp	.LBB38_30
.LBB38_46:                              #   in Loop: Header=BB38_22 Depth=1
	movq	(%rsp), %rsi
	movl	$.L.str.12.90, %edi
	movl	$8, %edx
	callq	curl_strnequal
	testl	%eax, %eax
	je	.LBB38_96
# %bb.47:                               #   in Loop: Header=BB38_22 Depth=1
	testq	%r14, %r14
	je	.LBB38_49
# %bb.48:                               #   in Loop: Header=BB38_22 Depth=1
	movb	$0, (%r14)
.LBB38_49:                              #   in Loop: Header=BB38_22 Depth=1
	movq	(%rsp), %rax
	leaq	8(%rax), %rbx
	movq	%rbx, (%rsp)
	movzbl	8(%rax), %edi
	cmpl	$64, %edi
	je	.LBB38_60
# %bb.50:                               #   in Loop: Header=BB38_22 Depth=1
	cmpb	$60, %dil
	jne	.LBB38_51
.LBB38_60:                              #   Parent Loop BB38_22 Depth=1
                                        # =>  This Inner Loop Header: Depth=2
	leaq	1(%rbx), %rax
	movq	%rax, (%rsp)
	movzbl	1(%rbx), %edi
	callq	Curl_isspace
	movq	(%rsp), %rbx
	testl	%eax, %eax
	jne	.LBB38_60
# %bb.61:                               #   in Loop: Header=BB38_22 Depth=1
	movq	%r12, %rdi
	movq	%rsp, %rsi
	leaq	8(%rsp), %rdx
	movl	20(%rsp), %ecx          # 4-byte Reload
	callq	get_param_word
	movq	%rax, %r14
	cmpq	%rbx, %rax
	je	.LBB38_62
.LBB38_66:                              #   in Loop: Header=BB38_22 Depth=1
	movq	(%rsp), %rax
	movb	(%rax), %bpl
	movq	8(%rsp), %rax
	movb	$0, (%rax)
	movl	$.L.str.13.91, %esi
	movq	%r14, %rdi
	callq	fopen
	testq	%rax, %rax
	je	.LBB38_67
# %bb.68:                               #   in Loop: Header=BB38_22 Depth=1
	movq	%rax, %r12
	movl	%ebp, 92(%rsp)          # 4-byte Spill
	movq	%r14, 96(%rsp)          # 8-byte Spill
	movl	$1, 48(%rsp)            # 4-byte Folded Spill
	xorl	%r14d, %r14d
.LBB38_69:                              #   Parent Loop BB38_22 Depth=1
                                        # =>  This Loop Header: Depth=2
                                        #       Child Loop BB38_70 Depth 3
                                        #         Child Loop BB38_73 Depth 4
	xorl	%ebx, %ebx
	xorl	%r15d, %r15d
.LBB38_70:                              #   Parent Loop BB38_22 Depth=1
                                        #     Parent Loop BB38_69 Depth=2
                                        # =>    This Loop Header: Depth=3
                                        #         Child Loop BB38_73 Depth 4
	movq	%r12, %rdi
	callq	getc
	movl	%eax, %r13d
	cmpl	$-1, %eax
	je	.LBB38_73
# %bb.71:                               #   in Loop: Header=BB38_70 Depth=3
	testq	%rbx, %rbx
	jne	.LBB38_78
# %bb.72:                               #   in Loop: Header=BB38_70 Depth=3
	movzbl	%r13b, %edi
	callq	Curl_isspace
	testl	%eax, %eax
	jne	.LBB38_78
.LBB38_73:                              #   Parent Loop BB38_22 Depth=1
                                        #     Parent Loop BB38_69 Depth=2
                                        #       Parent Loop BB38_70 Depth=3
                                        # =>      This Inner Loop Header: Depth=4
	testq	%r14, %r14
	je	.LBB38_74
# %bb.75:                               #   in Loop: Header=BB38_73 Depth=4
	movzbl	367(%rsp,%r14), %edi
	decq	%r14
	callq	Curl_isspace
	testl	%eax, %eax
	jne	.LBB38_73
# %bb.76:                               #   in Loop: Header=BB38_70 Depth=3
	movq	%r12, %rbp
	movq	%rbx, %r12
	movb	$0, 369(%rsp,%r14)
	movq	24(%rsp), %rbx          # 8-byte Reload
	movq	%rbx, %rdi
	leaq	368(%rsp), %rsi
	callq	curl_slist_append
	testq	%rax, %rax
	je	.LBB38_92
# %bb.77:                               #   in Loop: Header=BB38_70 Depth=3
	movq	%rax, 24(%rsp)          # 8-byte Spill
	xorl	%r14d, %r14d
	movq	%r12, %rbx
	movq	%rbp, %r12
	jmp	.LBB38_78
.LBB38_74:                              #   in Loop: Header=BB38_70 Depth=3
	xorl	%r14d, %r14d
.LBB38_78:                              #   in Loop: Header=BB38_70 Depth=3
	cmpl	$13, %r13d
	je	.LBB38_70
# %bb.79:                               #   in Loop: Header=BB38_70 Depth=3
	cmpl	$35, %r13d
	je	.LBB38_85
# %bb.80:                               #   in Loop: Header=BB38_70 Depth=3
	cmpl	$10, %r13d
	je	.LBB38_84
# %bb.81:                               #   in Loop: Header=BB38_70 Depth=3
	cmpl	$-1, %r13d
	je	.LBB38_82
	jmp	.LBB38_86
.LBB38_85:                              #   in Loop: Header=BB38_70 Depth=3
	testq	%rbx, %rbx
	movzbl	%r15b, %r15d
	movl	$1, %eax
	cmovel	%eax, %r15d
.LBB38_86:                              #   in Loop: Header=BB38_70 Depth=3
	incq	%rbx
	testb	$1, %r15b
	jne	.LBB38_70
# %bb.87:                               #   in Loop: Header=BB38_70 Depth=3
	cmpq	$998, %r14              # imm = 0x3E6
	jne	.LBB38_89
# %bb.88:                               #   in Loop: Header=BB38_70 Depth=3
	movq	32(%rsp), %rax          # 8-byte Reload
	movq	1232(%rax), %rdi
	movl	$.L.str.25.95, %esi
	movq	96(%rsp), %rdx          # 8-byte Reload
	movl	48(%rsp), %ecx          # 4-byte Reload
	xorl	%eax, %eax
	callq	warnf
	movl	$32, %r13d
	jmp	.LBB38_90
.LBB38_89:                              #   in Loop: Header=BB38_70 Depth=3
	ja	.LBB38_70
.LBB38_90:                              #   in Loop: Header=BB38_70 Depth=3
	movb	%r13b, 368(%rsp,%r14)
	incq	%r14
	jmp	.LBB38_70
.LBB38_84:                              #   in Loop: Header=BB38_69 Depth=2
	incl	48(%rsp)                # 4-byte Folded Spill
	jmp	.LBB38_69
.LBB38_41:                              #   in Loop: Header=BB38_22 Depth=1
	movq	8(%rsp), %rax
.LBB38_42:                              #   Parent Loop BB38_22 Depth=1
                                        # =>  This Inner Loop Header: Depth=2
	cmpq	%rbx, %rax
	jbe	.LBB38_45
# %bb.43:                               #   in Loop: Header=BB38_42 Depth=2
	movzbl	-1(%rax), %edi
	callq	Curl_isspace
	testl	%eax, %eax
	je	.LBB38_45
# %bb.44:                               #   in Loop: Header=BB38_42 Depth=2
	movq	8(%rsp), %rax
	decq	%rax
	movq	%rax, 8(%rsp)
	jmp	.LBB38_42
.LBB38_96:                              #   in Loop: Header=BB38_22 Depth=1
	movq	(%rsp), %rsi
	movl	$.L.str.16.97, %edi
	movl	$8, %edx
	callq	curl_strnequal
	testl	%eax, %eax
	je	.LBB38_106
# %bb.97:                               #   in Loop: Header=BB38_22 Depth=1
	testq	%r14, %r14
	je	.LBB38_99
# %bb.98:                               #   in Loop: Header=BB38_22 Depth=1
	movb	$0, (%r14)
.LBB38_99:                              #   in Loop: Header=BB38_22 Depth=1
	movq	(%rsp), %rcx
	addq	$8, %rcx
.LBB38_100:                             #   Parent Loop BB38_22 Depth=1
                                        # =>  This Inner Loop Header: Depth=2
	movq	%rcx, (%rsp)
	movzbl	(%rcx), %edi
	callq	Curl_isspace
	movq	(%rsp), %rbx
	leaq	1(%rbx), %rcx
	testl	%eax, %eax
	jne	.LBB38_100
# %bb.101:                              #   in Loop: Header=BB38_22 Depth=1
	movq	%r12, %rdi
	movq	%rsp, %rsi
	leaq	8(%rsp), %rdx
	movl	20(%rsp), %ecx          # 4-byte Reload
	callq	get_param_word
	movq	%rax, %rcx
	movq	%rax, 56(%rsp)          # 8-byte Spill
	cmpq	%rbx, %rax
	jne	.LBB38_45
# %bb.102:                              #   in Loop: Header=BB38_22 Depth=1
	movq	8(%rsp), %rax
.LBB38_103:                             #   Parent Loop BB38_22 Depth=1
                                        # =>  This Inner Loop Header: Depth=2
	cmpq	%rbx, %rax
	jbe	.LBB38_45
# %bb.104:                              #   in Loop: Header=BB38_103 Depth=2
	movzbl	-1(%rax), %edi
	callq	Curl_isspace
	testl	%eax, %eax
	je	.LBB38_45
# %bb.105:                              #   in Loop: Header=BB38_103 Depth=2
	movq	8(%rsp), %rax
	decq	%rax
	movq	%rax, 8(%rsp)
	jmp	.LBB38_103
.LBB38_51:                              #   in Loop: Header=BB38_22 Depth=1
	callq	Curl_isspace
	movq	(%rsp), %rbp
	testl	%eax, %eax
	movq	24(%rsp), %r14          # 8-byte Reload
	je	.LBB38_53
.LBB38_52:                              #   Parent Loop BB38_22 Depth=1
                                        # =>  This Inner Loop Header: Depth=2
	leaq	1(%rbp), %rax
	movq	%rax, (%rsp)
	movzbl	1(%rbp), %edi
	callq	Curl_isspace
	movq	(%rsp), %rbp
	testl	%eax, %eax
	jne	.LBB38_52
.LBB38_53:                              #   in Loop: Header=BB38_22 Depth=1
	movq	%r12, %rdi
	movq	%rsp, %rsi
	leaq	8(%rsp), %rdx
	movl	20(%rsp), %ecx          # 4-byte Reload
	callq	get_param_word
	movq	%rax, %rbx
	cmpq	%rbp, %rax
	je	.LBB38_54
.LBB38_58:                              #   in Loop: Header=BB38_22 Depth=1
	movq	(%rsp), %rax
	movb	(%rax), %bpl
	movq	8(%rsp), %rax
	movb	$0, (%rax)
	movq	%r14, %rdi
	movq	%rbx, %rsi
	callq	curl_slist_append
	testq	%rax, %rax
	je	.LBB38_95
# %bb.59:                               #   in Loop: Header=BB38_22 Depth=1
	movq	%rax, 24(%rsp)          # 8-byte Spill
	jmp	.LBB38_114
.LBB38_62:                              #   in Loop: Header=BB38_22 Depth=1
	movq	8(%rsp), %rax
.LBB38_63:                              #   Parent Loop BB38_22 Depth=1
                                        # =>  This Inner Loop Header: Depth=2
	cmpq	%rbx, %rax
	jbe	.LBB38_66
# %bb.64:                               #   in Loop: Header=BB38_63 Depth=2
	movzbl	-1(%rax), %edi
	callq	Curl_isspace
	testl	%eax, %eax
	je	.LBB38_66
# %bb.65:                               #   in Loop: Header=BB38_63 Depth=2
	movq	8(%rsp), %rax
	decq	%rax
	movq	%rax, 8(%rsp)
	jmp	.LBB38_63
.LBB38_67:                              #   in Loop: Header=BB38_22 Depth=1
	movq	32(%rsp), %r12          # 8-byte Reload
	movq	1232(%r12), %rbx
	callq	__errno_location
	movl	(%rax), %edi
	callq	strerror
	movl	$.L.str.14.92, %esi
	movq	%rbx, %rdi
	movq	%r14, %rdx
	movq	%rax, %rcx
	xorl	%eax, %eax
	callq	warnf
	jmp	.LBB38_114
.LBB38_106:                             #   in Loop: Header=BB38_22 Depth=1
	testq	%r14, %r14
	je	.LBB38_112
# %bb.107:                              #   in Loop: Header=BB38_22 Depth=1
	movq	(%rsp), %rcx
	movq	%rcx, %r14
.LBB38_108:                             #   Parent Loop BB38_22 Depth=1
                                        # =>  This Inner Loop Header: Depth=2
	movzbl	(%rcx), %ebp
	testl	%ebp, %ebp
	je	.LBB38_115
# %bb.109:                              #   in Loop: Header=BB38_108 Depth=2
	cmpb	$59, %bpl
	je	.LBB38_115
# %bb.110:                              #   in Loop: Header=BB38_108 Depth=2
	cmpb	%r13b, %bpl
	je	.LBB38_33
# %bb.111:                              #   in Loop: Header=BB38_108 Depth=2
	movl	%ebp, %edi
	callq	Curl_isspace
	movq	(%rsp), %rcx
	incq	%rcx
	testl	%eax, %eax
	cmoveq	%rcx, %r14
	movq	%rcx, (%rsp)
	jmp	.LBB38_108
.LBB38_33:                              #   in Loop: Header=BB38_22 Depth=1
	movl	%r13d, %ebp
	jmp	.LBB38_115
.LBB38_82:                              #   in Loop: Header=BB38_22 Depth=1
	movq	%r12, %rdi
	callq	ferror
	testl	%eax, %eax
	jne	.LBB38_83
# %bb.91:                               #   in Loop: Header=BB38_22 Depth=1
	movq	%r12, %rdi
	callq	fclose
	xorl	%r14d, %r14d
	movq	32(%rsp), %r12          # 8-byte Reload
	movl	52(%rsp), %r13d         # 4-byte Reload
	movl	92(%rsp), %ebp          # 4-byte Reload
	jmp	.LBB38_115
.LBB38_54:                              #   in Loop: Header=BB38_22 Depth=1
	movq	8(%rsp), %rax
.LBB38_55:                              #   Parent Loop BB38_22 Depth=1
                                        # =>  This Inner Loop Header: Depth=2
	cmpq	%rbp, %rax
	jbe	.LBB38_58
# %bb.56:                               #   in Loop: Header=BB38_55 Depth=2
	movzbl	-1(%rax), %edi
	callq	Curl_isspace
	testl	%eax, %eax
	je	.LBB38_58
# %bb.57:                               #   in Loop: Header=BB38_55 Depth=2
	movq	8(%rsp), %rax
	decq	%rax
	movq	%rax, 8(%rsp)
	jmp	.LBB38_55
.LBB38_112:                             #   in Loop: Header=BB38_22 Depth=1
	movq	%r12, %rdi
	movq	%rsp, %rsi
	leaq	8(%rsp), %rdx
	movl	20(%rsp), %ecx          # 4-byte Reload
	callq	get_param_word
	movq	(%rsp), %rcx
	movb	(%rcx), %bpl
	movq	8(%rsp), %rcx
	xorl	%edx, %edx
	movb	%dl, (%rcx)
	cmpb	%dl, (%rax)
	je	.LBB38_114
# %bb.113:                              #   in Loop: Header=BB38_22 Depth=1
	movq	1232(%r12), %rdi
	movl	$.L.str.17.98, %esi
	movq	%rax, %rdx
	xorl	%eax, %eax
	callq	warnf
	jmp	.LBB38_114
.LBB38_20:
	movq	%rax, 64(%rsp)          # 8-byte Spill
	xorl	%eax, %eax
	movq	%rax, 72(%rsp)          # 8-byte Spill
	xorl	%eax, %eax
	movq	%rax, 56(%rsp)          # 8-byte Spill
	xorl	%eax, %eax
	movq	%rax, 24(%rsp)          # 8-byte Spill
	movq	1432(%rsp), %rbx
	jmp	.LBB38_119
.LBB38_92:
	movq	32(%rsp), %rax          # 8-byte Reload
	movq	1232(%rax), %rax
	movq	8(%rax), %rdi
	movl	$.L.str.23.93, %esi
	xorl	%eax, %eax
	callq	curl_mfprintf
	movq	%rbp, %r12
.LBB38_93:
	movq	%r12, %rdi
	callq	fclose
	movq	%rbx, %rdi
.LBB38_94:
	callq	curl_slist_free_all
	movl	$-1, %r13d
	jmp	.LBB38_136
.LBB38_116:
	movzbl	%bpl, %r13d
	testq	%r14, %r14
	je	.LBB38_118
# %bb.117:
	movb	$0, (%r14)
.LBB38_118:
	movq	1432(%rsp), %rbx
	movq	40(%rsp), %rbp          # 8-byte Reload
	movq	1424(%rsp), %r14
.LBB38_119:
	movq	80(%rsp), %rax          # 8-byte Reload
	testq	%rax, %rax
	je	.LBB38_121
# %bb.120:
	movq	64(%rsp), %rcx          # 8-byte Reload
	movq	%rcx, (%rax)
	jmp	.LBB38_123
.LBB38_121:
	movq	64(%rsp), %rdx          # 8-byte Reload
	testq	%rdx, %rdx
	je	.LBB38_123
# %bb.122:
	movq	1232(%r12), %rdi
	movl	$.L.str.18.99, %esi
	xorl	%eax, %eax
	callq	warnf
.LBB38_123:
	testq	%rbp, %rbp
	je	.LBB38_125
# %bb.124:
	movq	72(%rsp), %rax          # 8-byte Reload
	movq	%rax, (%rbp)
	jmp	.LBB38_127
.LBB38_125:
	movq	72(%rsp), %rdx          # 8-byte Reload
	testq	%rdx, %rdx
	je	.LBB38_127
# %bb.126:
	movq	1232(%r12), %rdi
	movl	$.L.str.19.100, %esi
	xorl	%eax, %eax
	callq	warnf
.LBB38_127:
	testq	%r14, %r14
	je	.LBB38_129
# %bb.128:
	movq	56(%rsp), %rax          # 8-byte Reload
	movq	%rax, (%r14)
	movq	24(%rsp), %rbp          # 8-byte Reload
	jmp	.LBB38_131
.LBB38_129:
	movq	56(%rsp), %rdx          # 8-byte Reload
	testq	%rdx, %rdx
	movq	24(%rsp), %rbp          # 8-byte Reload
	je	.LBB38_131
# %bb.130:
	movq	1232(%r12), %rdi
	movl	$.L.str.20.101, %esi
	xorl	%eax, %eax
	callq	warnf
.LBB38_131:
	testq	%rbx, %rbx
	je	.LBB38_133
# %bb.132:
	movq	%rbp, (%rbx)
	jmp	.LBB38_135
.LBB38_133:
	testq	%rbp, %rbp
	je	.LBB38_135
# %bb.134:
	movq	1232(%r12), %rdi
	movq	(%rbp), %rdx
	movl	$.L.str.21.102, %esi
	xorl	%eax, %eax
	callq	warnf
	movq	%rbp, %rdi
	callq	curl_slist_free_all
.LBB38_135:
	movq	(%rsp), %rax
	movq	104(%rsp), %rcx         # 8-byte Reload
	movq	%rax, (%rcx)
.LBB38_136:
	movl	%r13d, %eax
	addq	$1368, %rsp             # imm = 0x558
	.cfi_def_cfa_offset 56
	popq	%rbx
	.cfi_def_cfa_offset 48
	popq	%r12
	.cfi_def_cfa_offset 40
	popq	%r13
	.cfi_def_cfa_offset 32
	popq	%r14
	.cfi_def_cfa_offset 24
	popq	%r15
	.cfi_def_cfa_offset 16
	popq	%rbp
	.cfi_def_cfa_offset 8
	retq
.LBB38_28:
	.cfi_def_cfa_offset 1424
	movq	1232(%r12), %rdi
	movl	$.L.str.10.88, %esi
	xorl	%eax, %eax
	callq	warnf
	movq	24(%rsp), %rdi          # 8-byte Reload
	jmp	.LBB38_94
.LBB38_95:
	movq	1232(%r12), %rax
	movq	8(%rax), %rdi
	movl	$.L.str.15.96, %esi
	xorl	%eax, %eax
	callq	curl_mfprintf
	movq	%r14, %rdi
	jmp	.LBB38_94
.LBB38_83:
	movq	32(%rsp), %rax          # 8-byte Reload
	movq	1232(%rax), %rax
	movq	8(%rax), %rbx
	callq	__errno_location
	movl	(%rax), %edi
	callq	strerror
	movl	$.L.str.24.94, %esi
	movq	%rbx, %rdi
	movq	96(%rsp), %rdx          # 8-byte Reload
	movq	%rax, %rcx
	xorl	%eax, %eax
	callq	curl_mfprintf
	movq	24(%rsp), %rbx          # 8-byte Reload
	jmp	.LBB38_93
.Lfunc_end38:
	.size	get_param_part, .Lfunc_end38-get_param_part
	.cfi_endproc
                                        # -- End function
	.type	tool_mime_new_parts,@function # -- Begin function tool_mime_new_parts
tool_mime_new_parts:                    # @tool_mime_new_parts
	.cfi_startproc
# %bb.0:
	pushq	%rbx
	.cfi_def_cfa_offset 16
	.cfi_offset %rbx, -16
	movq	%rdi, %rbx
	movl	$1, %edi
	movl	$112, %esi
	callq	calloc
	testq	%rax, %rax
	je	.LBB39_3
# %bb.1:
	movl	$1, (%rax)
	movq	%rbx, 8(%rax)
	testq	%rbx, %rbx
	je	.LBB39_3
# %bb.2:
	movq	72(%rbx), %rcx
	movq	%rcx, 16(%rax)
	movq	%rax, 72(%rbx)
.LBB39_3:
	popq	%rbx
	.cfi_def_cfa_offset 8
	retq
.Lfunc_end39:
	.size	tool_mime_new_parts, .Lfunc_end39-tool_mime_new_parts
	.cfi_endproc
                                        # -- End function
	.type	tool_mime_new_filedata,@function # -- Begin function tool_mime_new_filedata
tool_mime_new_filedata:                 # @tool_mime_new_filedata
	.cfi_startproc
# %bb.0:
	pushq	%rbp
	.cfi_def_cfa_offset 16
	pushq	%r15
	.cfi_def_cfa_offset 24
	pushq	%r14
	.cfi_def_cfa_offset 32
	pushq	%r13
	.cfi_def_cfa_offset 40
	pushq	%r12
	.cfi_def_cfa_offset 48
	pushq	%rbx
	.cfi_def_cfa_offset 56
	subq	$168, %rsp
	.cfi_def_cfa_offset 224
	.cfi_offset %rbx, -56
	.cfi_offset %r12, -48
	.cfi_offset %r13, -40
	.cfi_offset %r14, -32
	.cfi_offset %r15, -24
	.cfi_offset %rbp, -16
	movq	%rcx, %r15
	movl	%edx, %r14d
	movq	%rsi, %rbx
	movq	%rdi, %r13
	movl	$27, (%rcx)
	movl	$.L.str.7.78, %esi
	movq	%rbx, %rdi
	callq	strcmp
	testl	%eax, %eax
	je	.LBB40_8
# %bb.1:
	movq	%rbx, %rdi
	callq	strdup
	testq	%rax, %rax
	je	.LBB40_26
# %bb.2:
	movq	%rax, %rbp
	movl	$1, %edi
	movl	$112, %esi
	callq	calloc
	testq	%rax, %rax
	je	.LBB40_25
# %bb.3:
	movq	%rax, %rbx
	movl	$3, (%rax)
	movq	%r13, 8(%rax)
	testq	%r13, %r13
	je	.LBB40_5
# %bb.4:
	movq	72(%r13), %rax
	movq	%rax, 16(%rbx)
	movq	%rbx, 72(%r13)
.LBB40_5:
	movq	%rbp, 24(%rbx)
	testb	%r14b, %r14b
	jne	.LBB40_7
# %bb.6:
	movl	$4, (%rbx)
.LBB40_7:
	movl	$0, (%r15)
	jmp	.LBB40_27
.LBB40_8:
	movq	stdin(%rip), %rdi
	callq	fileno
	movl	%eax, %ebx
	movq	$0, (%rsp)
	movq	stdin(%rip), %rdi
	callq	ftell
	testl	%ebx, %ebx
	js	.LBB40_13
# %bb.9:
	movq	%rax, %r12
	testq	%rax, %rax
	js	.LBB40_13
# %bb.10:
	leaq	24(%rsp), %rsi
	movl	%ebx, %edi
	callq	fstat
	testl	%eax, %eax
	jne	.LBB40_13
# %bb.11:
	movl	$61440, %eax            # imm = 0xF000
	andl	48(%rsp), %eax
	cmpl	$32768, %eax            # imm = 0x8000
	jne	.LBB40_13
# %bb.12:
	movq	72(%rsp), %rbp
	xorl	%ecx, %ecx
	subq	%r12, %rbp
	movl	$0, %eax
	movq	%rax, 8(%rsp)           # 8-byte Spill
	cmovsq	%rcx, %rbp
	jmp	.LBB40_19
.LBB40_13:
	leaq	16(%rsp), %rsi
	movq	$0, (%rsi)
	movq	stdin(%rip), %rdx
	movq	%rsp, %rdi
	callq	file2memory
	testl	%eax, %eax
	jne	.LBB40_26
# %bb.14:
	movq	stdin(%rip), %rdi
	callq	ferror
	testl	%eax, %eax
	je	.LBB40_16
# %bb.15:
	movq	(%rsp), %rdi
	callq	myFree
	movq	$0, (%rsp)
	movl	$26, %ebx
	jmp	.LBB40_18
.LBB40_25:
	movq	%rbp, %rdi
	callq	myFree
.LBB40_26:
	xorl	%ebx, %ebx
.LBB40_27:
	movq	%rbx, %rax
	addq	$168, %rsp
	.cfi_def_cfa_offset 56
	popq	%rbx
	.cfi_def_cfa_offset 48
	popq	%r12
	.cfi_def_cfa_offset 40
	popq	%r13
	.cfi_def_cfa_offset 32
	popq	%r14
	.cfi_def_cfa_offset 24
	popq	%r15
	.cfi_def_cfa_offset 16
	popq	%rbp
	.cfi_def_cfa_offset 8
	retq
.LBB40_16:
	.cfi_def_cfa_offset 224
	xorl	%ebx, %ebx
	cmpq	$0, 16(%rsp)
	jne	.LBB40_18
# %bb.17:
	movl	$.L.str.26.85, %edi
	callq	strdup
	movq	%rax, (%rsp)
	testq	%rax, %rax
	je	.LBB40_26
.LBB40_18:
	movq	%rbx, 8(%rsp)           # 8-byte Spill
	movq	16(%rsp), %rdi
	callq	curlx_uztoso
	movq	%rax, %rbp
	xorl	%r12d, %r12d
.LBB40_19:
	movl	$1, %edi
	movl	$112, %esi
	callq	calloc
	movq	%rax, %rbx
	testq	%rax, %rax
	je	.LBB40_28
# %bb.20:
	movl	$5, (%rbx)
	movq	%r13, 8(%rbx)
	testq	%r13, %r13
	je	.LBB40_22
# %bb.21:
	movq	72(%r13), %rax
	movq	%rax, 16(%rbx)
	movq	%rbx, 72(%r13)
.LBB40_22:
	movq	(%rsp), %rax
	movq	%rax, 24(%rbx)
	movq	%r12, 80(%rbx)
	movq	%rbp, 88(%rbx)
	testb	%r14b, %r14b
	jne	.LBB40_24
# %bb.23:
	movl	$6, (%rbx)
.LBB40_24:
	movq	8(%rsp), %rax           # 8-byte Reload
	movl	%eax, (%r15)
	jmp	.LBB40_27
.LBB40_28:
	movq	(%rsp), %rdi
	callq	myFree
	movq	$0, (%rsp)
	jmp	.LBB40_27
.Lfunc_end40:
	.size	tool_mime_new_filedata, .Lfunc_end40-tool_mime_new_filedata
	.cfi_endproc
                                        # -- End function
	.globl	file2memory             # -- Begin function file2memory
	.type	file2memory,@function
file2memory:                            # @file2memory
	.cfi_startproc
# %bb.0:
	pushq	%r15
	.cfi_def_cfa_offset 16
	pushq	%r14
	.cfi_def_cfa_offset 24
	pushq	%r13
	.cfi_def_cfa_offset 32
	pushq	%r12
	.cfi_def_cfa_offset 40
	pushq	%rbx
	.cfi_def_cfa_offset 48
	subq	$4128, %rsp             # imm = 0x1020
	.cfi_def_cfa_offset 4176
	.cfi_offset %rbx, -48
	.cfi_offset %r12, -40
	.cfi_offset %r13, -32
	.cfi_offset %r14, -24
	.cfi_offset %r15, -16
	movq	%rsi, %r15
	movq	%rdi, %r14
	testq	%rdx, %rdx
	je	.LBB41_5
# %bb.1:
	movq	%rdx, %r13
	movq	%rsp, %r12
	movl	$1073741824, %esi       # imm = 0x40000000
	movq	%r12, %rdi
	callq	curlx_dyn_init
	leaq	32(%rsp), %rbx
.LBB41_2:                               # =>This Inner Loop Header: Depth=1
	movl	$1, %esi
	movl	$4096, %edx             # imm = 0x1000
	movq	%rbx, %rdi
	movq	%r13, %rcx
	callq	fread
	testq	%rax, %rax
	je	.LBB41_7
# %bb.3:                                #   in Loop: Header=BB41_2 Depth=1
	movq	%r12, %rdi
	movq	%rbx, %rsi
	movq	%rax, %rdx
	callq	curlx_dyn_addn
	testl	%eax, %eax
	je	.LBB41_2
# %bb.4:
	movl	$14, %eax
	jmp	.LBB41_6
.LBB41_5:
	xorl	%eax, %eax
	movq	%rax, (%r15)
	movq	%rax, (%r14)
	jmp	.LBB41_6
.LBB41_7:
	movq	%rsp, %rbx
	movq	%rbx, %rdi
	callq	curlx_dyn_len
	movq	%rax, (%r15)
	movq	%rbx, %rdi
	callq	curlx_dyn_ptr
	movq	%rax, (%r14)
	xorl	%eax, %eax
.LBB41_6:
                                        # kill: def $eax killed $eax killed $rax
	addq	$4128, %rsp             # imm = 0x1020
	.cfi_def_cfa_offset 48
	popq	%rbx
	.cfi_def_cfa_offset 40
	popq	%r12
	.cfi_def_cfa_offset 32
	popq	%r13
	.cfi_def_cfa_offset 24
	popq	%r14
	.cfi_def_cfa_offset 16
	popq	%r15
	.cfi_def_cfa_offset 8
	retq
.Lfunc_end41:
	.size	file2memory, .Lfunc_end41-file2memory
	.cfi_endproc
                                        # -- End function
	.globl	curlx_dyn_init          # -- Begin function curlx_dyn_init
	.type	curlx_dyn_init,@function
curlx_dyn_init:                         # @curlx_dyn_init
	.cfi_startproc
# %bb.0:
	xorps	%xmm0, %xmm0
	movups	%xmm0, (%rdi)
	movq	$0, 16(%rdi)
	movq	%rsi, 24(%rdi)
	retq
.Lfunc_end42:
	.size	curlx_dyn_init, .Lfunc_end42-curlx_dyn_init
	.cfi_endproc
                                        # -- End function
	.globl	curlx_dyn_addn          # -- Begin function curlx_dyn_addn
	.type	curlx_dyn_addn,@function
curlx_dyn_addn:                         # @curlx_dyn_addn
	.cfi_startproc
# %bb.0:
	jmp	dyn_nappend             # TAILCALL
.Lfunc_end43:
	.size	curlx_dyn_addn, .Lfunc_end43-curlx_dyn_addn
	.cfi_endproc
                                        # -- End function
	.globl	curlx_dyn_len           # -- Begin function curlx_dyn_len
	.type	curlx_dyn_len,@function
curlx_dyn_len:                          # @curlx_dyn_len
	.cfi_startproc
# %bb.0:
	movq	8(%rdi), %rax
	retq
.Lfunc_end44:
	.size	curlx_dyn_len, .Lfunc_end44-curlx_dyn_len
	.cfi_endproc
                                        # -- End function
	.globl	curlx_dyn_ptr           # -- Begin function curlx_dyn_ptr
	.type	curlx_dyn_ptr,@function
curlx_dyn_ptr:                          # @curlx_dyn_ptr
	.cfi_startproc
# %bb.0:
	movq	(%rdi), %rax
	retq
.Lfunc_end45:
	.size	curlx_dyn_ptr, .Lfunc_end45-curlx_dyn_ptr
	.cfi_endproc
                                        # -- End function
	.type	dyn_nappend,@function   # -- Begin function dyn_nappend
dyn_nappend:                            # @dyn_nappend
	.cfi_startproc
# %bb.0:
	pushq	%r15
	.cfi_def_cfa_offset 16
	pushq	%r14
	.cfi_def_cfa_offset 24
	pushq	%r13
	.cfi_def_cfa_offset 32
	pushq	%r12
	.cfi_def_cfa_offset 40
	pushq	%rbx
	.cfi_def_cfa_offset 48
	.cfi_offset %rbx, -48
	.cfi_offset %r12, -40
	.cfi_offset %r13, -32
	.cfi_offset %r14, -24
	.cfi_offset %r15, -16
	movq	%rdi, %r13
	movq	8(%rdi), %r12
	leaq	(%r12,%rdx), %rcx
	incq	%rcx
	cmpq	24(%rdi), %rcx
	jbe	.LBB46_2
.LBB46_1:
	movq	(%r13), %rdi
	callq	myFree
	xorps	%xmm0, %xmm0
	movups	%xmm0, (%r13)
	movq	$0, 16(%r13)
	movl	$27, %eax
	jmp	.LBB46_11
.LBB46_2:
	movq	%rdx, %r14
	movq	%rsi, %r15
	movq	16(%r13), %rax
	testq	%rax, %rax
	je	.LBB46_12
# %bb.3:
	movq	%rax, %rdx
.LBB46_4:                               # =>This Inner Loop Header: Depth=1
	movq	%rdx, %rbx
	addq	%rdx, %rdx
	cmpq	%rcx, %rbx
	jb	.LBB46_4
	jmp	.LBB46_5
.LBB46_12:
	movl	$32, %ebx
	cmpq	%rbx, %rcx
	cmovaq	%rcx, %rbx
.LBB46_5:
	cmpq	%rax, %rbx
	je	.LBB46_8
# %bb.6:
	movq	(%r13), %rdi
	movq	%rbx, %rsi
	callq	realloc
	testq	%rax, %rax
	je	.LBB46_1
# %bb.7:
	movq	%rax, (%r13)
	movq	%rbx, 16(%r13)
.LBB46_8:
	leaq	(%r12,%r14), %rbx
	testq	%r14, %r14
	je	.LBB46_10
# %bb.9:
	addq	(%r13), %r12
	movq	%r12, %rdi
	movq	%r15, %rsi
	movq	%r14, %rdx
	callq	memcpy
.LBB46_10:
	movq	%rbx, 8(%r13)
	movq	(%r13), %rax
	movb	$0, (%rax,%rbx)
	xorl	%eax, %eax
.LBB46_11:
	popq	%rbx
	.cfi_def_cfa_offset 40
	popq	%r12
	.cfi_def_cfa_offset 32
	popq	%r13
	.cfi_def_cfa_offset 24
	popq	%r14
	.cfi_def_cfa_offset 16
	popq	%r15
	.cfi_def_cfa_offset 8
	retq
.Lfunc_end46:
	.size	dyn_nappend, .Lfunc_end46-dyn_nappend
	.cfi_endproc
                                        # -- End function
	.type	get_param_word,@function # -- Begin function get_param_word
get_param_word:                         # @get_param_word
	.cfi_startproc
# %bb.0:
	pushq	%rbp
	.cfi_def_cfa_offset 16
	pushq	%r15
	.cfi_def_cfa_offset 24
	pushq	%r14
	.cfi_def_cfa_offset 32
	pushq	%r13
	.cfi_def_cfa_offset 40
	pushq	%r12
	.cfi_def_cfa_offset 48
	pushq	%rbx
	.cfi_def_cfa_offset 56
	pushq	%rax
	.cfi_def_cfa_offset 64
	.cfi_offset %rbx, -56
	.cfi_offset %r12, -48
	.cfi_offset %r13, -40
	.cfi_offset %r14, -32
	.cfi_offset %r15, -24
	.cfi_offset %rbp, -16
	movl	%ecx, %r13d
	movq	%rsi, %r12
	movq	(%rsi), %rax
	movb	(%rax), %r8b
	cmpb	$34, %r8b
	jne	.LBB47_1
# %bb.6:
	leaq	1(%rax), %r15
	xorl	%esi, %esi
	movq	%r15, %rbx
.LBB47_7:                               # =>This Inner Loop Header: Depth=1
	movb	(%rbx), %cl
	cmpb	$92, %cl
	je	.LBB47_16
# %bb.8:                                #   in Loop: Header=BB47_7 Depth=1
	testb	%cl, %cl
	je	.LBB47_1
# %bb.9:                                #   in Loop: Header=BB47_7 Depth=1
	cmpb	$34, %cl
	jne	.LBB47_30
	jmp	.LBB47_10
.LBB47_16:                              #   in Loop: Header=BB47_7 Depth=1
	movb	1(%rbx), %cl
	cmpb	$92, %cl
	je	.LBB47_18
# %bb.17:                               #   in Loop: Header=BB47_7 Depth=1
	cmpb	$34, %cl
	je	.LBB47_18
.LBB47_30:                              #   in Loop: Header=BB47_7 Depth=1
	incq	%rbx
	jmp	.LBB47_7
.LBB47_18:                              #   in Loop: Header=BB47_7 Depth=1
	testq	%rsi, %rsi
	cmoveq	%rbx, %rsi
	addq	$2, %rbx
	jmp	.LBB47_7
.LBB47_1:
	movq	%rax, %rbx
.LBB47_2:                               # =>This Inner Loop Header: Depth=1
	testb	%r8b, %r8b
	je	.LBB47_31
# %bb.3:                                #   in Loop: Header=BB47_2 Depth=1
	cmpb	$59, %r8b
	je	.LBB47_31
# %bb.4:                                #   in Loop: Header=BB47_2 Depth=1
	cmpb	%r13b, %r8b
	je	.LBB47_31
# %bb.5:                                #   in Loop: Header=BB47_2 Depth=1
	movb	1(%rbx), %r8b
	incq	%rbx
	jmp	.LBB47_2
.LBB47_31:
	movq	%rbx, (%rdx)
	jmp	.LBB47_32
.LBB47_10:
	movq	%rbx, (%rdx)
	testq	%rsi, %rsi
	je	.LBB47_22
# %bb.11:                               # %.preheader
	movq	%rsi, %rax
.LBB47_12:                              # =>This Inner Loop Header: Depth=1
	movb	(%rsi), %cl
	cmpb	$92, %cl
	jne	.LBB47_20
# %bb.13:                               #   in Loop: Header=BB47_12 Depth=1
	movb	1(%rsi), %cl
	cmpb	$92, %cl
	je	.LBB47_19
# %bb.14:                               #   in Loop: Header=BB47_12 Depth=1
	cmpb	$34, %cl
	jne	.LBB47_15
.LBB47_19:                              #   in Loop: Header=BB47_12 Depth=1
	incq	%rsi
	jmp	.LBB47_20
.LBB47_15:                              #   in Loop: Header=BB47_12 Depth=1
	movb	$92, %cl
.LBB47_20:                              #   in Loop: Header=BB47_12 Depth=1
	incq	%rsi
	movb	%cl, (%rax)
	incq	%rax
	cmpq	(%rdx), %rsi
	jb	.LBB47_12
# %bb.21:
	movq	%rax, (%rdx)
	movq	%rsi, %rbx
.LBB47_22:
	movq	%rdi, (%rsp)            # 8-byte Spill
	incq	%rbx
	xorl	%ebp, %ebp
	movl	$1, %r14d
.LBB47_23:                              # =>This Inner Loop Header: Depth=1
	movzbl	(%rbx), %edi
	testl	%edi, %edi
	je	.LBB47_27
# %bb.24:                               #   in Loop: Header=BB47_23 Depth=1
	cmpb	$59, %dil
	je	.LBB47_27
# %bb.25:                               #   in Loop: Header=BB47_23 Depth=1
	cmpb	%r13b, %dil
	je	.LBB47_27
# %bb.26:                               #   in Loop: Header=BB47_23 Depth=1
	callq	Curl_isspace
	testl	%eax, %eax
	movzbl	%bpl, %ebp
	cmovel	%r14d, %ebp
	incq	%rbx
	jmp	.LBB47_23
.LBB47_27:
	testb	$1, %bpl
	je	.LBB47_28
# %bb.29:
	movq	(%rsp), %rax            # 8-byte Reload
	movq	1232(%rax), %rdi
	movl	$.L.str.22.103, %esi
	xorl	%eax, %eax
	callq	warnf
.LBB47_28:
	movq	%r15, %rax
.LBB47_32:
	movq	%rbx, (%r12)
	addq	$8, %rsp
	.cfi_def_cfa_offset 56
	popq	%rbx
	.cfi_def_cfa_offset 48
	popq	%r12
	.cfi_def_cfa_offset 40
	popq	%r13
	.cfi_def_cfa_offset 32
	popq	%r14
	.cfi_def_cfa_offset 24
	popq	%r15
	.cfi_def_cfa_offset 16
	popq	%rbp
	.cfi_def_cfa_offset 8
	retq
.Lfunc_end47:
	.size	get_param_word, .Lfunc_end47-get_param_word
	.cfi_endproc
                                        # -- End function
	.globl	getparameter            # -- Begin function getparameter
	.type	getparameter,@function
getparameter:                           # @getparameter
	.cfi_startproc
# %bb.0:
	pushq	%rbp
	.cfi_def_cfa_offset 16
	pushq	%r15
	.cfi_def_cfa_offset 24
	pushq	%r14
	.cfi_def_cfa_offset 32
	pushq	%r13
	.cfi_def_cfa_offset 40
	pushq	%r12
	.cfi_def_cfa_offset 48
	pushq	%rbx
	.cfi_def_cfa_offset 56
	subq	$472, %rsp              # imm = 0x1D8
	.cfi_def_cfa_offset 528
	.cfi_offset %rbx, -56
	.cfi_offset %r12, -48
	.cfi_offset %r13, -40
	.cfi_offset %r14, -32
	.cfi_offset %r15, -24
	.cfi_offset %rbp, -16
	movq	%r8, %r13
	movq	%rcx, %r12
	movq	%rsi, %r9
	movq	%rdx, 200(%rsp)         # 8-byte Spill
	movb	$0, (%rdx)
	movb	(%rdi), %al
	cmpb	$45, %al
	jne	.LBB48_2
# %bb.1:
	cmpb	$45, 1(%rdi)
	jne	.LBB48_15
.LBB48_2:
	movq	%r9, 24(%rsp)           # 8-byte Spill
	movq	%r13, 56(%rsp)          # 8-byte Spill
	movq	%r12, 104(%rsp)         # 8-byte Spill
	leaq	2(%rdi), %rbp
	cmpb	$45, %al
	cmovneq	%rdi, %rbp
	movq	%rbp, %rdi
	callq	strlen
	movq	%rax, 8(%rsp)           # 8-byte Spill
	movl	$.L.str.104, %esi
	movl	$3, %edx
	movq	%rbp, %rdi
	callq	strncmp
	leaq	3(%rbp), %rbx
	movl	%eax, 4(%rsp)           # 4-byte Spill
	testl	%eax, %eax
	cmovneq	%rbp, %rbx
	xorl	%r12d, %r12d
	movl	$-1, %r15d
	movl	$aliases+8, %r14d
	xorl	%eax, %eax
	movq	%rax, 48(%rsp)          # 8-byte Spill
	xorl	%eax, %eax
	movq	%rax, 96(%rsp)          # 8-byte Spill
	xorl	%r13d, %r13d
.LBB48_3:                               # =>This Inner Loop Header: Depth=1
	movq	(%r14), %rbp
	movq	%rbp, %rdi
	movq	%rbx, %rsi
	movq	8(%rsp), %rdx           # 8-byte Reload
	callq	curl_strnequal
	testl	%eax, %eax
	je	.LBB48_6
# %bb.4:                                #   in Loop: Header=BB48_3 Depth=1
	movq	%rbp, %rdi
	movq	%rbx, %rsi
	callq	curl_strequal
	movq	-8(%r14), %rcx
	movq	%rcx, 48(%rsp)          # 8-byte Spill
	testl	%eax, %eax
	jne	.LBB48_11
# %bb.5:                                # %._crit_edge138
                                        #   in Loop: Header=BB48_3 Depth=1
	incl	%r13d
	movb	$1, %al
	movq	%rax, 96(%rsp)          # 8-byte Spill
	movl	%r12d, %r15d
.LBB48_6:                               #   in Loop: Header=BB48_3 Depth=1
	incq	%r12
	addq	$24, %r14
	cmpq	$248, %r12
	jne	.LBB48_3
# %bb.7:
	movl	$1, %ebp
	cmpl	$1, %r13d
	movq	104(%rsp), %r12         # 8-byte Reload
	movq	56(%rsp), %r13          # 8-byte Reload
	movq	24(%rsp), %r9           # 8-byte Reload
	jg	.LBB48_10
# %bb.8:
	testl	%r15d, %r15d
	movq	96(%rsp), %rcx          # 8-byte Reload
	jns	.LBB48_12
.LBB48_9:                               # %.loopexit9
	movl	$2, %ebp
.LBB48_10:
	movl	%ebp, %eax
	addq	$472, %rsp              # imm = 0x1D8
	.cfi_def_cfa_offset 56
	popq	%rbx
	.cfi_def_cfa_offset 48
	popq	%r12
	.cfi_def_cfa_offset 40
	popq	%r13
	.cfi_def_cfa_offset 32
	popq	%r14
	.cfi_def_cfa_offset 24
	popq	%r15
	.cfi_def_cfa_offset 16
	popq	%rbp
	.cfi_def_cfa_offset 8
	retq
.LBB48_11:
	.cfi_def_cfa_offset 528
	movb	$1, %cl
	movl	%r12d, %r15d
	movq	104(%rsp), %r12         # 8-byte Reload
	movq	56(%rsp), %r13          # 8-byte Reload
	movq	24(%rsp), %r9           # 8-byte Reload
.LBB48_12:
	movb	$1, %dl
	cmpl	$0, 4(%rsp)             # 4-byte Folded Reload
	jne	.LBB48_16
# %bb.13:
	movl	%r15d, %eax
	leaq	(%rax,%rax,2), %rax
	movl	$18, %ebp
	cmpl	$1, aliases+16(,%rax,8)
	jne	.LBB48_10
# %bb.14:
	xorl	%edx, %edx
	jmp	.LBB48_16
.LBB48_15:
	incq	%rdi
	movq	%rdi, 48(%rsp)          # 8-byte Spill
	movl	$-1, %r15d
	movb	$1, %dl
	xorl	%ecx, %ecx
.LBB48_16:
	movb	$1, %al
	movq	%rcx, 96(%rsp)          # 8-byte Spill
	testb	%al, %cl
	sete	%sil
	leaq	72(%r12), %rcx
	movq	%rcx, 392(%rsp)         # 8-byte Spill
	leaq	264(%r13), %rcx
	movq	%rcx, 192(%rsp)         # 8-byte Spill
	leaq	272(%r13), %rcx
	movq	%rcx, 184(%rsp)         # 8-byte Spill
	leaq	808(%r13), %rcx
	movq	%rcx, 112(%rsp)         # 8-byte Spill
	leaq	936(%r13), %rcx
	movq	%rcx, 456(%rsp)         # 8-byte Spill
	movzbl	%dl, %edi
	movl	%edx, %ecx
	xorb	%al, %cl
	movb	%cl, 23(%rsp)           # 1-byte Spill
	movzbl	%cl, %ecx
	movl	%ecx, 136(%rsp)         # 4-byte Spill
	leaq	832(%r13), %rcx
	movq	%rcx, 416(%rsp)         # 8-byte Spill
	leaq	824(%r13), %rcx
	movq	%rcx, 408(%rsp)         # 8-byte Spill
	leaq	816(%r13), %rcx
	movq	%rcx, 400(%rsp)         # 8-byte Spill
	leal	(,%rdi,4), %ecx
	movzbl	%cl, %ecx
	movl	%ecx, 132(%rsp)         # 4-byte Spill
	leaq	168(%r13), %rcx
	movq	%rcx, 448(%rsp)         # 8-byte Spill
	movq	%rdi, 120(%rsp)         # 8-byte Spill
	cmpb	%al, %dil
	movl	$2, %eax
	sbbl	$0, %eax
	movl	%eax, 140(%rsp)         # 4-byte Spill
	leaq	960(%r13), %rax
	movq	%rax, 176(%rsp)         # 8-byte Spill
	leaq	896(%r13), %rax
	movq	%rax, 168(%rsp)         # 8-byte Spill
	leaq	904(%r13), %rax
	movq	%rax, 160(%rsp)         # 8-byte Spill
	leaq	912(%r13), %rax
	movq	%rax, 440(%rsp)         # 8-byte Spill
	leaq	920(%r13), %rax
	movq	%rax, 432(%rsp)         # 8-byte Spill
	leaq	688(%r13), %rax
	movq	%rax, 152(%rsp)         # 8-byte Spill
	leaq	560(%r13), %rax
	movq	%rax, 344(%rsp)         # 8-byte Spill
	leaq	680(%r13), %rax
	movq	%rax, 144(%rsp)         # 8-byte Spill
	leaq	552(%r13), %rax
	movq	%rax, 216(%rsp)         # 8-byte Spill
	leaq	136(%r13), %rax
	movq	%rax, 424(%rsp)         # 8-byte Spill
	leaq	32(%r13), %rax
	movq	%rax, 376(%rsp)         # 8-byte Spill
	leaq	48(%r13), %rax
	movq	%rax, 384(%rsp)         # 8-byte Spill
	leaq	1208(%r13), %rax
	movq	%rax, 336(%rsp)         # 8-byte Spill
	leaq	848(%r13), %rax
	movq	%rax, 328(%rsp)         # 8-byte Spill
	leaq	952(%r13), %rax
	movq	%rax, 320(%rsp)         # 8-byte Spill
	leaq	1184(%r13), %rax
	movq	%rax, 312(%rsp)         # 8-byte Spill
	leaq	944(%r13), %rax
	movq	%rax, 304(%rsp)         # 8-byte Spill
	leaq	112(%r13), %rax
	movq	%rax, 296(%rsp)         # 8-byte Spill
	leaq	96(%r13), %rax
	movq	%rax, 288(%rsp)         # 8-byte Spill
	leaq	416(%r13), %rax
	movq	%rax, 280(%rsp)         # 8-byte Spill
	leaq	1096(%r13), %rax
	movq	%rax, 272(%rsp)         # 8-byte Spill
	leaq	1112(%r13), %rax
	movq	%rax, 264(%rsp)         # 8-byte Spill
	leaq	232(%r13), %rax
	movq	%rax, 256(%rsp)         # 8-byte Spill
	leaq	240(%r13), %rax
	movq	%rax, 248(%rsp)         # 8-byte Spill
	leaq	1064(%r13), %rax
	movq	%rax, 240(%rsp)         # 8-byte Spill
	leaq	1056(%r13), %rax
	movq	%rax, 232(%rsp)         # 8-byte Spill
	leaq	1040(%r13), %rax
	movq	%rax, 224(%rsp)         # 8-byte Spill
	leaq	80(%r13), %rax
	movq	%rax, 40(%rsp)          # 8-byte Spill
	leaq	184(%r13), %rax
	movq	%rax, 368(%rsp)         # 8-byte Spill
	leaq	872(%r13), %rax
	movq	%rax, 360(%rsp)         # 8-byte Spill
	leaq	176(%r13), %rax
	movq	%rax, 352(%rsp)         # 8-byte Spill
	xorl	%edi, %edi
	movl	%edx, 4(%rsp)           # 4-byte Spill
	movb	%sil, 8(%rsp)           # 1-byte Spill
.LBB48_17:                              # =>This Loop Header: Depth=1
                                        #     Child Loop BB48_29 Depth 2
                                        #     Child Loop BB48_177 Depth 2
                                        #     Child Loop BB48_352 Depth 2
                                        #     Child Loop BB48_294 Depth 2
                                        #     Child Loop BB48_756 Depth 2
	testb	$1, 96(%rsp)            # 1-byte Folded Reload
	je	.LBB48_19
# %bb.18:                               #   in Loop: Header=BB48_17 Depth=1
	movq	48(%rsp), %rax          # 8-byte Reload
	movb	1(%rax), %r14b
	jmp	.LBB48_20
.LBB48_19:                              #   in Loop: Header=BB48_17 Depth=1
	xorl	%r14d, %r14d
	movq	48(%rsp), %rax          # 8-byte Reload
.LBB48_20:                              #   in Loop: Header=BB48_17 Depth=1
	movsbl	(%rax), %ebx
	testl	%r15d, %r15d
	js	.LBB48_28
.LBB48_21:                              #   in Loop: Header=BB48_17 Depth=1
	movl	%r15d, %eax
	leaq	(%rax,%rax,2), %rax
	movl	aliases+16(,%rax,8), %eax
	cmpl	$2, %eax
	jb	.LBB48_25
# %bb.22:                               #   in Loop: Header=BB48_17 Depth=1
	testb	$1, 96(%rsp)            # 1-byte Folded Reload
	jne	.LBB48_31
# %bb.23:                               #   in Loop: Header=BB48_17 Depth=1
	movq	48(%rsp), %rcx          # 8-byte Reload
	cmpb	$0, 1(%rcx)
	je	.LBB48_31
# %bb.24:                               #   in Loop: Header=BB48_17 Depth=1
	movq	48(%rsp), %rcx          # 8-byte Reload
	leaq	1(%rcx), %r9
	movb	$1, %dil
	jmp	.LBB48_33
.LBB48_25:                              #   in Loop: Header=BB48_17 Depth=1
	testb	%dl, %dl
	jne	.LBB48_37
# %bb.26:                               #   in Loop: Header=BB48_17 Depth=1
	testl	%eax, %eax
	jne	.LBB48_37
	jmp	.LBB48_27
.LBB48_28:                              # %.preheader7
                                        #   in Loop: Header=BB48_17 Depth=1
	movl	$aliases, %eax
	xorl	%r15d, %r15d
.LBB48_29:                              #   Parent Loop BB48_17 Depth=1
                                        # =>  This Inner Loop Header: Depth=2
	movq	(%rax), %rcx
	cmpb	(%rcx), %bl
	je	.LBB48_21
# %bb.30:                               #   in Loop: Header=BB48_29 Depth=2
	incq	%r15
	addq	$24, %rax
	cmpq	$248, %r15
	jne	.LBB48_29
	jmp	.LBB48_9
.LBB48_31:                              #   in Loop: Header=BB48_17 Depth=1
	testq	%r9, %r9
	je	.LBB48_838
# %bb.32:                               #   in Loop: Header=BB48_17 Depth=1
	movq	200(%rsp), %rcx         # 8-byte Reload
	movb	$1, (%rcx)
.LBB48_33:                              #   in Loop: Header=BB48_17 Depth=1
	cmpl	$3, %eax
	jne	.LBB48_37
# %bb.34:                               #   in Loop: Header=BB48_17 Depth=1
	cmpb	$45, (%r9)
	jne	.LBB48_37
# %bb.35:                               #   in Loop: Header=BB48_17 Depth=1
	cmpb	$0, 1(%r9)
	je	.LBB48_37
# %bb.36:                               #   in Loop: Header=BB48_17 Depth=1
	movl	$.L.str.1.105, %esi
	movq	%rdi, %r15
	movq	%r12, %rdi
	movq	%r9, %rdx
	xorl	%eax, %eax
	movq	%r9, %rbp
	callq	warnf
	movq	%r15, %rdi
	movb	8(%rsp), %sil           # 1-byte Reload
	movl	4(%rsp), %edx           # 4-byte Reload
	movq	%rbp, %r9
.LBB48_37:                              #   in Loop: Header=BB48_17 Depth=1
	leal	-35(%rbx), %eax
	cmpl	$87, %eax
	ja	.LBB48_9
# %bb.38:                               #   in Loop: Header=BB48_17 Depth=1
	movl	$15, %ebp
	jmpq	*.LJTI48_0(,%rax,8)
.LBB48_39:                              #   in Loop: Header=BB48_17 Depth=1
	cmpb	$109, %r14b
	jne	.LBB48_211
# %bb.40:                               #   in Loop: Header=BB48_17 Depth=1
	movb	23(%rsp), %al           # 1-byte Reload
	movb	%al, 5(%r12)
	jmp	.LBB48_782
.LBB48_41:                              #   in Loop: Header=BB48_17 Depth=1
	movsbl	%r14b, %eax
	addl	$-33, %eax
	cmpl	$93, %eax
	ja	.LBB48_782
# %bb.42:                               #   in Loop: Header=BB48_17 Depth=1
	jmpq	*.LJTI48_5(,%rax,8)
.LBB48_43:                              #   in Loop: Header=BB48_17 Depth=1
	movb	%dl, 1048(%r13)
	jmp	.LBB48_782
.LBB48_44:                              #   in Loop: Header=BB48_17 Depth=1
	movsbl	%r14b, %eax
	addl	$-52, %eax
	cmpl	$74, %eax
	ja	.LBB48_782
# %bb.45:                               #   in Loop: Header=BB48_17 Depth=1
	jmpq	*.LJTI48_6(,%rax,8)
.LBB48_46:                              #   in Loop: Header=BB48_17 Depth=1
	movq	%rdi, %rbp
	movq	296(%r13), %rdi
	testq	%rdi, %rdi
	je	.LBB48_48
# %bb.47:                               #   in Loop: Header=BB48_17 Depth=1
	movq	%r9, %rbx
	callq	myFree
	movq	%rbx, %r9
	movq	$0, 296(%r13)
.LBB48_48:                              #   in Loop: Header=BB48_17 Depth=1
	testq	%r9, %r9
	je	.LBB48_722
# %bb.49:                               #   in Loop: Header=BB48_17 Depth=1
	movq	%r9, %rdi
	movq	%r9, %rbx
	callq	strdup
	movq	%rbx, %r9
	movq	%rax, 296(%r13)
	jmp	.LBB48_781
.LBB48_50:                              #   in Loop: Header=BB48_17 Depth=1
	movsbl	%r14b, %eax
	leal	-49(%rax), %ecx
	cmpl	$8, %ecx
	ja	.LBB48_276
# %bb.51:                               #   in Loop: Header=BB48_17 Depth=1
	jmpq	*.LJTI48_4(,%rcx,8)
.LBB48_52:                              #   in Loop: Header=BB48_17 Depth=1
	movq	$2, 776(%r13)
	jmp	.LBB48_782
.LBB48_53:                              #   in Loop: Header=BB48_17 Depth=1
	movsbl	%r14b, %eax
	cmpl	$64, %eax
	jg	.LBB48_256
# %bb.54:                               #   in Loop: Header=BB48_17 Depth=1
	leal	-48(%rax), %ecx
	cmpl	$3, %ecx
	ja	.LBB48_286
# %bb.55:                               #   in Loop: Header=BB48_17 Depth=1
	jmpq	*.LJTI48_3(,%rcx,8)
.LBB48_56:                              #   in Loop: Header=BB48_17 Depth=1
	movq	$4, 840(%r13)
	jmp	.LBB48_782
.LBB48_57:                              #   in Loop: Header=BB48_17 Depth=1
	movl	$.L.str.12.116, %esi
	jmp	.LBB48_59
.LBB48_58:                              #   in Loop: Header=BB48_17 Depth=1
	movl	$.L.str.13.117, %esi
.LBB48_59:                              #   in Loop: Header=BB48_17 Depth=1
	movq	%rdi, %rbp
	movq	%r12, %rdi
	xorl	%eax, %eax
	movq	%r9, %rbx
	callq	warnf
.LBB48_60:                              #   in Loop: Header=BB48_17 Depth=1
	movq	%rbp, %rdi
	movb	8(%rsp), %sil           # 1-byte Reload
	movl	4(%rsp), %edx           # 4-byte Reload
	movq	%rbx, %r9
	jmp	.LBB48_782
.LBB48_61:                              #   in Loop: Header=BB48_17 Depth=1
	movq	$1, 864(%r13)
	jmp	.LBB48_782
.LBB48_62:                              #   in Loop: Header=BB48_17 Depth=1
	movq	$2, 864(%r13)
	jmp	.LBB48_782
.LBB48_63:                              #   in Loop: Header=BB48_17 Depth=1
	movq	%rdi, %rbp
	movq	24(%r13), %rdi
	testq	%rdi, %rdi
	je	.LBB48_65
# %bb.64:                               #   in Loop: Header=BB48_17 Depth=1
	movq	%r9, %rbx
	callq	myFree
	movq	%rbx, %r9
	movq	$0, 24(%r13)
.LBB48_65:                              #   in Loop: Header=BB48_17 Depth=1
	testq	%r9, %r9
	je	.LBB48_722
# %bb.66:                               #   in Loop: Header=BB48_17 Depth=1
	movq	%r9, %rdi
	movq	%r9, %rbx
	callq	strdup
	movq	%rbx, %r9
	movq	%rax, 24(%r13)
	jmp	.LBB48_781
.LBB48_67:                              #   in Loop: Header=BB48_17 Depth=1
	movb	%dl, 451(%r13)
	jmp	.LBB48_782
.LBB48_68:                              #   in Loop: Header=BB48_17 Depth=1
	movq	%rdi, %r14
	movl	$.L.str.5.109, %esi
	movq	%r9, %rdi
	movq	%r9, %rbp
	callq	strcmp
	testl	%eax, %eax
	je	.LBB48_227
# %bb.69:                               #   in Loop: Header=BB48_17 Depth=1
	movq	424(%rsp), %rdi         # 8-byte Reload
	movq	%rbp, %rbx
	movq	%rbp, %rsi
	callq	str2offset
	testl	%eax, %eax
	jne	.LBB48_840
# %bb.70:                               #   in Loop: Header=BB48_17 Depth=1
	movb	$0, 89(%r13)
	movq	%rbx, %r9
	jmp	.LBB48_228
.LBB48_71:                              #   in Loop: Header=BB48_17 Depth=1
	movq	%rdi, %rbp
	movq	208(%r13), %rdi
	testq	%rdi, %rdi
	je	.LBB48_73
# %bb.72:                               #   in Loop: Header=BB48_17 Depth=1
	movq	%r9, %rbx
	callq	myFree
	movq	%rbx, %r9
	movq	$0, 208(%r13)
.LBB48_73:                              #   in Loop: Header=BB48_17 Depth=1
	testq	%r9, %r9
	je	.LBB48_722
# %bb.74:                               #   in Loop: Header=BB48_17 Depth=1
	movq	%r9, %rdi
	movq	%r9, %rbx
	callq	strdup
	movq	%rbx, %r9
	movq	%rax, 208(%r13)
	jmp	.LBB48_781
.LBB48_75:                              #   in Loop: Header=BB48_17 Depth=1
	movsbl	%r14b, %eax
	movl	$2, %ebp
	leal	-48(%rax), %ecx
	cmpl	$74, %ecx
	ja	.LBB48_379
# %bb.76:                               #   in Loop: Header=BB48_17 Depth=1
	jmpq	*.LJTI48_2(,%rcx,8)
.LBB48_77:                              #   in Loop: Header=BB48_17 Depth=1
	movq	%rdi, %rbp
	movq	672(%r13), %rdi
	testq	%rdi, %rdi
	je	.LBB48_79
# %bb.78:                               #   in Loop: Header=BB48_17 Depth=1
	movq	%r9, %rbx
	callq	myFree
	movq	%rbx, %r9
	movq	$0, 672(%r13)
.LBB48_79:                              #   in Loop: Header=BB48_17 Depth=1
	testq	%r9, %r9
	je	.LBB48_722
# %bb.80:                               #   in Loop: Header=BB48_17 Depth=1
	movq	%r9, %rdi
	movq	%r9, %rbx
	callq	strdup
	movq	%rbx, %r9
	movq	%rax, 672(%r13)
	jmp	.LBB48_781
.LBB48_81:                              #   in Loop: Header=BB48_17 Depth=1
	movq	%rdi, %r15
	xorl	%r8d, %r8d
	cmpb	$115, %r14b
	sete	%r8b
	movq	%r13, %rdi
	movq	%r9, %rbx
	movq	%r9, %rsi
	movq	440(%rsp), %rdx         # 8-byte Reload
	movq	432(%rsp), %rcx         # 8-byte Reload
	callq	formparse
	movl	$4, %ebp
	testl	%eax, %eax
	jne	.LBB48_10
# %bb.82:                               #   in Loop: Header=BB48_17 Depth=1
	movq	%r13, %rdi
	movl	$3, %esi
	movq	176(%rsp), %rdx         # 8-byte Reload
	callq	SetHTTPrequest
	testl	%eax, %eax
	movq	%rbx, %r9
	movl	4(%rsp), %edx           # 4-byte Reload
	movb	8(%rsp), %sil           # 1-byte Reload
	movq	%r15, %rdi
	je	.LBB48_782
	jmp	.LBB48_10
.LBB48_83:                              #   in Loop: Header=BB48_17 Depth=1
	cmpb	$97, %r14b
	jne	.LBB48_212
# %bb.84:                               #   in Loop: Header=BB48_17 Depth=1
	movq	%rdi, %rbp
	movq	768(%r13), %rdi
	testq	%rdi, %rdi
	je	.LBB48_86
# %bb.85:                               #   in Loop: Header=BB48_17 Depth=1
	movq	%r9, %rbx
	callq	myFree
	movq	%rbx, %r9
	movq	$0, 768(%r13)
.LBB48_86:                              #   in Loop: Header=BB48_17 Depth=1
	testq	%r9, %r9
	je	.LBB48_722
# %bb.87:                               #   in Loop: Header=BB48_17 Depth=1
	movq	%r9, %rdi
	movq	%r9, %rbx
	callq	strdup
	movq	%rbx, %r9
	movq	%rax, 768(%r13)
	jmp	.LBB48_781
.LBB48_88:                              #   in Loop: Header=BB48_17 Depth=1
	movq	%rdi, %r15
	cmpb	$64, (%r9)
	jne	.LBB48_839
# %bb.89:                               #   in Loop: Header=BB48_17 Depth=1
	movq	%r13, 56(%rsp)          # 8-byte Spill
	movq	%r9, 24(%rsp)           # 8-byte Spill
	leaq	1(%r9), %rbp
	movl	$.L.str.5.109, %esi
	movq	%rbp, %rdi
	callq	strcmp
	movl	%eax, %ebx
	testl	%eax, %eax
	je	.LBB48_288
# %bb.90:                               #   in Loop: Header=BB48_17 Depth=1
	movl	$.L.str.22.126, %esi
	movq	%rbp, %rdi
	callq	fopen
	movq	%rax, %r13
	jmp	.LBB48_289
.LBB48_91:                              #   in Loop: Header=BB48_17 Depth=1
	movb	%dl, 456(%r13)
	movb	%dl, 455(%r13)
	movq	%rdi, %rbp
	movq	%r13, %rdi
	movl	140(%rsp), %esi         # 4-byte Reload
	movq	176(%rsp), %rdx         # 8-byte Reload
	movq	%r9, %rbx
	callq	SetHTTPrequest
	movq	%rbp, %rdi
	movb	8(%rsp), %sil           # 1-byte Reload
	movl	4(%rsp), %edx           # 4-byte Reload
	movq	%rbx, %r9
	testl	%eax, %eax
	je	.LBB48_782
	jmp	.LBB48_805
.LBB48_92:                              #   in Loop: Header=BB48_17 Depth=1
	movb	%dl, 1120(%r13)
	jmp	.LBB48_782
.LBB48_93:                              #   in Loop: Header=BB48_17 Depth=1
	movq	%rdi, %rbp
	movq	%r9, %rdi
	movq	%r12, %rsi
	movq	%r9, %rbx
	callq	parseconfig
	testl	%eax, %eax
	je	.LBB48_271
# %bb.94:                               #   in Loop: Header=BB48_17 Depth=1
	movl	$.L.str.24.128, %esi
	movq	%r12, %rdi
	movq	%rbx, %rdx
	xorl	%eax, %eax
	callq	warnf
	jmp	.LBB48_271
.LBB48_95:                              #   in Loop: Header=BB48_17 Depth=1
	movb	%dl, 458(%r13)
	cmpb	$116, %r14b
	jne	.LBB48_782
# %bb.96:                               #   in Loop: Header=BB48_17 Depth=1
	movb	%dl, 459(%r13)
	jmp	.LBB48_782
.LBB48_844:                             #   in Loop: Header=BB48_17 Depth=1
	testb	%dl, %dl
	je	.LBB48_782
	jmp	.LBB48_845
.LBB48_97:                              #   in Loop: Header=BB48_17 Depth=1
	testb	$1, 96(%rsp)            # 1-byte Folded Reload
	jne	.LBB48_846
# %bb.98:                               #   in Loop: Header=BB48_17 Depth=1
	movb	%dl, 785(%r13)
	jmp	.LBB48_782
.LBB48_99:                              #   in Loop: Header=BB48_17 Depth=1
	cmpb	$98, %r14b
	je	.LBB48_236
# %bb.100:                              #   in Loop: Header=BB48_17 Depth=1
	cmpb	$97, %r14b
	jne	.LBB48_102
# %bb.101:                              #   in Loop: Header=BB48_17 Depth=1
	movl	132(%rsp), %eax         # 4-byte Reload
	movl	%eax, 1124(%r13)
	jmp	.LBB48_782
.LBB48_102:                             #   in Loop: Header=BB48_17 Depth=1
	movq	496(%r13), %rbp
	testq	%rbp, %rbp
	jne	.LBB48_105
# %bb.103:                              #   in Loop: Header=BB48_17 Depth=1
	movq	472(%r13), %rbp
	jmp	.LBB48_104
.LBB48_107:                             #   in Loop: Header=BB48_17 Depth=1
	movq	%rdi, %rbp
	movq	216(%r13), %rdi
	testq	%rdi, %rdi
	je	.LBB48_109
# %bb.108:                              #   in Loop: Header=BB48_17 Depth=1
	movq	%r9, %rbx
	callq	myFree
	movq	%rbx, %r9
	movq	$0, 216(%r13)
.LBB48_109:                             #   in Loop: Header=BB48_17 Depth=1
	testq	%r9, %r9
	je	.LBB48_722
# %bb.110:                              #   in Loop: Header=BB48_17 Depth=1
	movq	%r9, %rdi
	movq	%r9, %rbx
	callq	strdup
	movq	%rbx, %r9
	movq	%rax, 216(%r13)
	jmp	.LBB48_781
.LBB48_111:                             #   in Loop: Header=BB48_17 Depth=1
	movsbl	(%r9), %eax
	movq	%rdi, %r14
	cmpl	$43, %eax
	je	.LBB48_240
# %bb.112:                              #   in Loop: Header=BB48_17 Depth=1
	cmpl	$45, %eax
	jne	.LBB48_241
# %bb.113:                              #   in Loop: Header=BB48_17 Depth=1
	incq	%r9
	movq	408(%rsp), %rdi         # 8-byte Reload
	jmp	.LBB48_242
.LBB48_114:                             #   in Loop: Header=BB48_17 Depth=1
	movb	%dl, (%r13)
	jmp	.LBB48_782
.LBB48_115:                             #   in Loop: Header=BB48_17 Depth=1
	movq	120(%rsp), %rax         # 8-byte Reload
	movl	%eax, (%r12)
	jmp	.LBB48_782
.LBB48_116:                             #   in Loop: Header=BB48_17 Depth=1
	movq	504(%r13), %rbx
	testq	%rbx, %rbx
	jne	.LBB48_119
# %bb.117:                              #   in Loop: Header=BB48_17 Depth=1
	movq	472(%r13), %rbx
	jmp	.LBB48_118
.LBB48_121:                             #   in Loop: Header=BB48_17 Depth=1
	movq	%rdi, %rbp
	movq	376(%r13), %rdi
	testq	%rdi, %rdi
	je	.LBB48_123
# %bb.122:                              #   in Loop: Header=BB48_17 Depth=1
	movq	%r9, %rbx
	callq	myFree
	movq	%rbx, %r9
	movq	$0, 376(%r13)
.LBB48_123:                             #   in Loop: Header=BB48_17 Depth=1
	testq	%r9, %r9
	je	.LBB48_188
# %bb.124:                              #   in Loop: Header=BB48_17 Depth=1
	movq	%r9, %rdi
	movq	%r9, %rbx
	callq	strdup
	movq	%rbx, %r9
	movq	%rax, 376(%r13)
	jmp	.LBB48_187
.LBB48_847:                             #   in Loop: Header=BB48_17 Depth=1
	testb	%dl, %dl
	je	.LBB48_782
	jmp	.LBB48_848
.LBB48_125:                             #   in Loop: Header=BB48_17 Depth=1
	movq	%rdi, %rbp
	movq	744(%r13), %rdi
	testq	%rdi, %rdi
	je	.LBB48_127
# %bb.126:                              #   in Loop: Header=BB48_17 Depth=1
	movq	%r9, %rbx
	callq	myFree
	movq	%rbx, %r9
	movq	$0, 744(%r13)
.LBB48_127:                             #   in Loop: Header=BB48_17 Depth=1
	testq	%r9, %r9
	je	.LBB48_722
# %bb.128:                              #   in Loop: Header=BB48_17 Depth=1
	movq	%r9, %rdi
	movq	%r9, %rbx
	callq	strdup
	movq	%rbx, %r9
	movq	%rax, 744(%r13)
	jmp	.LBB48_781
.LBB48_129:                             #   in Loop: Header=BB48_17 Depth=1
	movq	%rdi, %rbp
	movq	192(%rsp), %rdi         # 8-byte Reload
	movq	%r9, %rbx
	movq	%r9, %rsi
	callq	str2unum
	testl	%eax, %eax
	jne	.LBB48_840
# %bb.130:                              #   in Loop: Header=BB48_17 Depth=1
	movq	184(%rsp), %rax         # 8-byte Reload
	cmpq	$0, (%rax)
	jne	.LBB48_271
# %bb.131:                              #   in Loop: Header=BB48_17 Depth=1
	movq	$30, (%rax)
	jmp	.LBB48_271
.LBB48_132:                             #   in Loop: Header=BB48_17 Depth=1
	movsbl	%r14b, %eax
	testl	%eax, %eax
	je	.LBB48_262
# %bb.133:                              #   in Loop: Header=BB48_17 Depth=1
	cmpl	$98, %eax
	je	.LBB48_263
# %bb.134:                              #   in Loop: Header=BB48_17 Depth=1
	cmpl	$99, %eax
	jne	.LBB48_782
# %bb.135:                              #   in Loop: Header=BB48_17 Depth=1
	movb	%dl, 80(%r12)
	jmp	.LBB48_782
.LBB48_136:                             #   in Loop: Header=BB48_17 Depth=1
	movb	%dl, 450(%r13)
	jmp	.LBB48_782
.LBB48_137:                             #   in Loop: Header=BB48_17 Depth=1
	movsbl	%r14b, %eax
	cmpl	$98, %eax
	je	.LBB48_244
# %bb.138:                              #   in Loop: Header=BB48_17 Depth=1
	cmpl	$97, %eax
	jne	.LBB48_249
# %bb.139:                              #   in Loop: Header=BB48_17 Depth=1
	movq	curlinfo(%rip), %rax
	testb	$1, 35(%rax)
	je	.LBB48_841
# %bb.140:                              #   in Loop: Header=BB48_17 Depth=1
	movq	%rdi, %rbp
	movq	56(%r13), %rdi
	testq	%rdi, %rdi
	je	.LBB48_142
# %bb.141:                              #   in Loop: Header=BB48_17 Depth=1
	movq	%r9, %rbx
	callq	myFree
	movq	%rbx, %r9
	movq	$0, 56(%r13)
.LBB48_142:                             #   in Loop: Header=BB48_17 Depth=1
	testq	%r9, %r9
	je	.LBB48_722
# %bb.143:                              #   in Loop: Header=BB48_17 Depth=1
	movq	%r9, %rdi
	movq	%r9, %rbx
	callq	strdup
	movq	%rbx, %r9
	movq	%rax, 56(%r13)
	jmp	.LBB48_781
.LBB48_144:                             #   in Loop: Header=BB48_17 Depth=1
	movq	%rdi, %rbp
	movq	40(%r13), %rdi
	testq	%rdi, %rdi
	je	.LBB48_146
# %bb.145:                              #   in Loop: Header=BB48_17 Depth=1
	movq	%r9, %rbx
	callq	myFree
	movq	%rbx, %r9
	movq	$0, 40(%r13)
.LBB48_146:                             #   in Loop: Header=BB48_17 Depth=1
	testq	%r9, %r9
	je	.LBB48_722
# %bb.147:                              #   in Loop: Header=BB48_17 Depth=1
	movq	%r9, %rdi
	movq	%r9, %rbx
	callq	strdup
	movq	%rbx, %r9
	movq	%rax, 40(%r13)
	jmp	.LBB48_781
.LBB48_148:                             #   in Loop: Header=BB48_17 Depth=1
	xorl	%eax, %eax
	movq	%rax, 64(%rsp)
	movq	%rax, 32(%rsp)
	cmpb	$101, %r14b
	movq	%r12, 104(%rsp)         # 8-byte Spill
	movq	%rdi, 208(%rsp)         # 8-byte Spill
	jne	.LBB48_213
# %bb.149:                              #   in Loop: Header=BB48_17 Depth=1
	movq	%r9, %rdi
	movl	$61, %esi
	movq	%r9, %rbp
	callq	strchr
	testq	%rax, %rax
	movq	%rbp, 24(%rsp)          # 8-byte Spill
	jne	.LBB48_151
# %bb.150:                              #   in Loop: Header=BB48_17 Depth=1
	movq	%rbp, %rdi
	movl	$64, %esi
	callq	strchr
	testq	%rax, %rax
	je	.LBB48_345
.LBB48_151:                             #   in Loop: Header=BB48_17 Depth=1
	movq	%rax, %r15
	subq	%rbp, %r15
	cmpb	$64, (%rax)
	leaq	1(%rax), %rbx
	jne	.LBB48_347
# %bb.152:                              #   in Loop: Header=BB48_17 Depth=1
	movl	$.L.str.5.109, %edi
	movq	%rbx, %rsi
	callq	strcmp
	testl	%eax, %eax
	je	.LBB48_337
# %bb.153:                              #   in Loop: Header=BB48_17 Depth=1
	movl	$.L.str.14.118, %esi
	movq	%rbx, %rdi
	callq	fopen
	movq	%rax, %rbx
	testq	%rax, %rax
	jne	.LBB48_338
# %bb.154:                              #   in Loop: Header=BB48_17 Depth=1
	xorl	%ebx, %ebx
	movl	$.L.str.15.119, %esi
	movq	%r12, %rdi
	movq	24(%rsp), %rdx          # 8-byte Reload
	xorl	%eax, %eax
	callq	warnf
	jmp	.LBB48_338
.LBB48_155:                             #   in Loop: Header=BB48_17 Depth=1
	movq	%rdi, %r14
	movl	$.L.str.18.122, %esi
	movq	%r9, %rbp
	movq	%r9, %rdi
	callq	strstr
	testq	%rax, %rax
	je	.LBB48_229
# %bb.156:                              #   in Loop: Header=BB48_17 Depth=1
	movb	$1, 452(%r13)
	movb	$0, (%rax)
	jmp	.LBB48_230
.LBB48_157:                             #   in Loop: Header=BB48_17 Depth=1
	movsbl	%r14b, %eax
	addl	$-97, %eax
	cmpl	$3, %eax
	ja	.LBB48_278
# %bb.158:                              #   in Loop: Header=BB48_17 Depth=1
	jmpq	*.LJTI48_1(,%rax,8)
.LBB48_159:                             #   in Loop: Header=BB48_17 Depth=1
	movb	%dl, 64(%r12)
	jmp	.LBB48_282
.LBB48_160:                             #   in Loop: Header=BB48_17 Depth=1
	movb	%dl, 787(%r13)
	jmp	.LBB48_782
.LBB48_849:                             #   in Loop: Header=BB48_17 Depth=1
	testb	%dl, %dl
	je	.LBB48_782
	jmp	.LBB48_850
.LBB48_161:                             #   in Loop: Header=BB48_17 Depth=1
	movb	%dl, 455(%r13)
	jmp	.LBB48_782
.LBB48_162:                             #   in Loop: Header=BB48_17 Depth=1
	movb	%dl, 72(%r13)
	jmp	.LBB48_782
.LBB48_163:                             #   in Loop: Header=BB48_17 Depth=1
	cmpb	$100, %r14b
	jne	.LBB48_218
# %bb.164:                              #   in Loop: Header=BB48_17 Depth=1
	movb	%dl, 790(%r13)
	jmp	.LBB48_782
.LBB48_165:                             #   in Loop: Header=BB48_17 Depth=1
	movb	%dl, 457(%r13)
	jmp	.LBB48_782
.LBB48_166:                             #   in Loop: Header=BB48_17 Depth=1
	movabsq	$9223372036854775, %rdx # imm = 0x20C49BA5E353F7
	movq	%rdi, %rbp
	movq	448(%rsp), %rdi         # 8-byte Reload
.LBB48_711:                             #   in Loop: Header=BB48_17 Depth=1
	movq	%r9, %rsi
	movq	%r9, %rbx
	callq	str2udouble
	jmp	.LBB48_712
.LBB48_167:                             #   in Loop: Header=BB48_17 Depth=1
	movsbl	%r14b, %eax
	cmpl	$101, %eax
	je	.LBB48_251
# %bb.168:                              #   in Loop: Header=BB48_17 Depth=1
	cmpl	$111, %eax
	jne	.LBB48_255
# %bb.169:                              #   in Loop: Header=BB48_17 Depth=1
	movb	%dl, 460(%r13)
	jmp	.LBB48_782
.LBB48_170:                             #   in Loop: Header=BB48_17 Depth=1
	movb	%dl, 449(%r13)
	jmp	.LBB48_782
.LBB48_171:                             #   in Loop: Header=BB48_17 Depth=1
	movq	%rdi, %r14
	movzbl	(%r9), %edi
	movq	%r9, %rbx
	callq	Curl_isdigit
	testl	%eax, %eax
	je	.LBB48_175
# %bb.172:                              #   in Loop: Header=BB48_17 Depth=1
	movq	%rbx, %rdi
	movl	$45, %esi
	callq	strchr
	testq	%rax, %rax
	jne	.LBB48_175
# %bb.173:                              #   in Loop: Header=BB48_17 Depth=1
	leaq	32(%rsp), %rcx
	movq	%rbx, %rbp
	movq	%rbx, %rdi
	xorl	%esi, %esi
	movl	$10, %edx
	callq	curlx_strtoofft
	testl	%eax, %eax
	jne	.LBB48_856
# %bb.174:                              #   in Loop: Header=BB48_17 Depth=1
	movl	$.L.str.26.130, %esi
	movq	%r12, %rdi
	xorl	%eax, %eax
	callq	warnf
	movq	32(%rsp), %rcx
	leaq	64(%rsp), %rbx
	movl	$32, %esi
	movl	$.L.str.27, %edx
	movq	%rbx, %rdi
	xorl	%eax, %eax
	callq	curl_msnprintf
	movq	256(%r13), %rdi
	callq	myFree
	movq	$0, 256(%r13)
	movq	%rbx, %rdi
	callq	strdup
	movq	%rax, 256(%r13)
	testq	%rax, %rax
	movq	%rbp, %rbx
	je	.LBB48_709
.LBB48_175:                             #   in Loop: Header=BB48_17 Depth=1
	movq	%rbx, %rbp
	movb	(%rbx), %al
	testb	%al, %al
	je	.LBB48_305
# %bb.176:                              # %.preheader4
                                        #   in Loop: Header=BB48_17 Depth=1
	leaq	1(%rbp), %rbx
.LBB48_177:                             #   Parent Loop BB48_17 Depth=1
                                        # =>  This Inner Loop Header: Depth=2
	movzbl	%al, %edi
	callq	Curl_isdigit
	testl	%eax, %eax
	jne	.LBB48_179
# %bb.178:                              #   in Loop: Header=BB48_177 Depth=2
	movb	-1(%rbx), %al
	andb	$-2, %al
	cmpb	$44, %al
	jne	.LBB48_304
.LBB48_179:                             #   in Loop: Header=BB48_177 Depth=2
	movb	(%rbx), %al
	incq	%rbx
	testb	%al, %al
	jne	.LBB48_177
	jmp	.LBB48_305
.LBB48_180:                             #   in Loop: Header=BB48_17 Depth=1
	movb	%dl, 5(%r12)
	movb	%dl, 4(%r12)
	cmpl	$0, (%r12)
	jns	.LBB48_782
# %bb.181:                              #   in Loop: Header=BB48_17 Depth=1
	movl	136(%rsp), %eax         # 4-byte Reload
	movl	%eax, (%r12)
	jmp	.LBB48_782
.LBB48_182:                             #   in Loop: Header=BB48_17 Depth=1
	movq	%rdi, %rbp
	movq	456(%rsp), %rdi         # 8-byte Reload
.LBB48_682:                             #   in Loop: Header=BB48_17 Depth=1
	movq	%r9, %rsi
	movq	%r9, %rbx
	callq	add2list
.LBB48_712:                             #   in Loop: Header=BB48_17 Depth=1
	movq	%rbp, %rdi
	movb	8(%rsp), %sil           # 1-byte Reload
	movl	4(%rsp), %edx           # 4-byte Reload
	movq	%rbx, %r9
	testl	%eax, %eax
	je	.LBB48_782
	jmp	.LBB48_840
.LBB48_183:                             #   in Loop: Header=BB48_17 Depth=1
	movq	%rdi, %rbp
	movq	312(%r13), %rdi
	testq	%rdi, %rdi
	je	.LBB48_185
# %bb.184:                              #   in Loop: Header=BB48_17 Depth=1
	movq	%r9, %rbx
	callq	myFree
	movq	%rbx, %r9
	movq	$0, 312(%r13)
.LBB48_185:                             #   in Loop: Header=BB48_17 Depth=1
	testq	%r9, %r9
	je	.LBB48_188
# %bb.186:                              #   in Loop: Header=BB48_17 Depth=1
	movq	%r9, %rdi
	movq	%r9, %rbx
	callq	strdup
	movq	%rbx, %r9
	movq	%rax, 312(%r13)
.LBB48_187:                             #   in Loop: Header=BB48_17 Depth=1
	testq	%rax, %rax
	je	.LBB48_709
.LBB48_188:                             #   in Loop: Header=BB48_17 Depth=1
	movq	%r9, %rdi
	movq	%r9, %rbx
	callq	cleanarg
	jmp	.LBB48_271
.LBB48_189:                             #   in Loop: Header=BB48_17 Depth=1
	testb	%dl, %dl
	je	.LBB48_235
# %bb.190:                              #   in Loop: Header=BB48_17 Depth=1
	movq	%rdi, %rbp
	movq	%r9, %rbx
	movq	24(%r12), %rdi
	callq	myFree
	movq	$0, 24(%r12)
	movl	$.L.str.29, %edi
	callq	strdup
	movq	%rax, 24(%r12)
	testq	%rax, %rax
	je	.LBB48_709
# %bb.191:                              #   in Loop: Header=BB48_17 Depth=1
	movl	44(%r12), %eax
	testl	%eax, %eax
	movq	%rbx, %r9
	movb	8(%rsp), %sil           # 1-byte Reload
	movq	%rbp, %rdi
	je	.LBB48_194
# %bb.192:                              #   in Loop: Header=BB48_17 Depth=1
	cmpl	$3, %eax
	je	.LBB48_194
# %bb.193:                              #   in Loop: Header=BB48_17 Depth=1
	movl	$.L.str.30, %esi
	movq	%r12, %rdi
	xorl	%eax, %eax
	callq	warnf
	movq	%rbp, %rdi
	movb	8(%rsp), %sil           # 1-byte Reload
	movq	%rbx, %r9
.LBB48_194:                             #   in Loop: Header=BB48_17 Depth=1
	movl	$3, 44(%r12)
	movl	4(%rsp), %edx           # 4-byte Reload
	jmp	.LBB48_782
.LBB48_195:                             #   in Loop: Header=BB48_17 Depth=1
	movq	%rdi, %r15
	cmpb	$64, (%r9)
	jne	.LBB48_219
# %bb.196:                              #   in Loop: Header=BB48_17 Depth=1
	incq	%r9
	movl	$.L.str.5.109, %edi
	movq	%r9, %rsi
	movq	%r9, %r14
	callq	strcmp
	testl	%eax, %eax
	movq	%r14, 24(%rsp)          # 8-byte Spill
	je	.LBB48_296
# %bb.197:                              #   in Loop: Header=BB48_17 Depth=1
	movl	$.L.str.22.126, %esi
	movq	%r14, %rdi
	callq	fopen
	movq	%rax, %rbp
	jmp	.LBB48_297
.LBB48_198:                             #   in Loop: Header=BB48_17 Depth=1
	movq	%rdi, %rbp
	cmpb	$97, %r14b
	jne	.LBB48_222
# %bb.199:                              #   in Loop: Header=BB48_17 Depth=1
	movq	992(%r13), %rdi
	testq	%rdi, %rdi
	je	.LBB48_201
# %bb.200:                              #   in Loop: Header=BB48_17 Depth=1
	movq	%r9, %rbx
	callq	myFree
	movq	%rbx, %r9
	movq	$0, 992(%r13)
.LBB48_201:                             #   in Loop: Header=BB48_17 Depth=1
	testq	%r9, %r9
	je	.LBB48_722
# %bb.202:                              #   in Loop: Header=BB48_17 Depth=1
	movq	%r9, %rdi
	movq	%r9, %rbx
	callq	strdup
	movq	%rbx, %r9
	movq	%rax, 992(%r13)
	jmp	.LBB48_781
.LBB48_203:                             #   in Loop: Header=BB48_17 Depth=1
	movq	%rdi, %rbp
	movq	184(%rsp), %rdi         # 8-byte Reload
	movq	%r9, %rbx
	movq	%r9, %rsi
	callq	str2unum
	testl	%eax, %eax
	jne	.LBB48_840
# %bb.204:                              #   in Loop: Header=BB48_17 Depth=1
	movq	192(%rsp), %rax         # 8-byte Reload
	cmpq	$0, (%rax)
	jne	.LBB48_271
# %bb.205:                              #   in Loop: Header=BB48_17 Depth=1
	movq	$1, (%rax)
	jmp	.LBB48_271
.LBB48_206:                             #   in Loop: Header=BB48_17 Depth=1
	movsbl	(%r9), %eax
	cmpl	$61, %eax
	je	.LBB48_267
# %bb.207:                              #   in Loop: Header=BB48_17 Depth=1
	cmpl	$45, %eax
	je	.LBB48_268
# %bb.208:                              #   in Loop: Header=BB48_17 Depth=1
	cmpl	$43, %eax
	jne	.LBB48_210
# %bb.209:                              #   in Loop: Header=BB48_17 Depth=1
	incq	%r9
.LBB48_210:                             #   in Loop: Header=BB48_17 Depth=1
	movq	%rdi, %rbp
	movl	$1, 880(%r13)
	jmp	.LBB48_270
.LBB48_211:                             #   in Loop: Header=BB48_17 Depth=1
	movq	120(%rsp), %rax         # 8-byte Reload
	movl	%eax, 52(%r12)
	jmp	.LBB48_782
.LBB48_212:                             #   in Loop: Header=BB48_17 Depth=1
	movb	$1, 788(%r13)
	jmp	.LBB48_782
.LBB48_839:                             #   in Loop: Header=BB48_17 Depth=1
	cmpb	$112, %r14b
	movq	168(%rsp), %rdi         # 8-byte Reload
	cmoveq	160(%rsp), %rdi         # 8-byte Folded Reload
	movq	%r9, %rsi
	movq	%r9, %rbx
	callq	add2list
	movq	%rbx, %r9
	testl	%eax, %eax
	movl	4(%rsp), %edx           # 4-byte Reload
	movb	8(%rsp), %sil           # 1-byte Reload
	movq	%r15, %rdi
	je	.LBB48_782
	jmp	.LBB48_840
.LBB48_213:                             #   in Loop: Header=BB48_17 Depth=1
	cmpb	$114, %r14b
	je	.LBB48_274
# %bb.214:                              #   in Loop: Header=BB48_17 Depth=1
	cmpb	$64, (%r9)
	jne	.LBB48_274
# %bb.215:                              #   in Loop: Header=BB48_17 Depth=1
	movq	%r13, %rbx
	incq	%r9
	movl	$.L.str.5.109, %edi
	movq	%r9, %rsi
	movq	%r9, %rbp
	callq	strcmp
	testl	%eax, %eax
	movq	%rbp, 24(%rsp)          # 8-byte Spill
	je	.LBB48_325
# %bb.216:                              #   in Loop: Header=BB48_17 Depth=1
	movl	$.L.str.14.118, %esi
	movq	%rbp, %rdi
	callq	fopen
	movq	%rax, %r13
	testq	%rax, %rax
	jne	.LBB48_326
# %bb.217:                              #   in Loop: Header=BB48_17 Depth=1
	xorl	%r13d, %r13d
	movl	$.L.str.15.119, %esi
	movq	%r12, %rdi
	movq	24(%rsp), %rdx          # 8-byte Reload
	xorl	%eax, %eax
	callq	warnf
	jmp	.LBB48_326
.LBB48_218:                             #   in Loop: Header=BB48_17 Depth=1
	movb	%dl, 789(%r13)
	jmp	.LBB48_782
.LBB48_219:                             #   in Loop: Header=BB48_17 Depth=1
	movq	112(%rsp), %rbp         # 8-byte Reload
	movq	(%rbp), %rdi
	testq	%rdi, %rdi
	je	.LBB48_221
# %bb.220:                              #   in Loop: Header=BB48_17 Depth=1
	movq	%r9, %rbx
	callq	myFree
	movq	%rbx, %r9
	movq	$0, (%rbp)
.LBB48_221:                             #   in Loop: Header=BB48_17 Depth=1
	movq	%r9, %rdi
	movq	%r9, %rbx
	callq	strdup
	movq	%rbx, %r9
	movq	%rax, (%rbp)
	testq	%rax, %rax
	movl	4(%rsp), %edx           # 4-byte Reload
	movb	8(%rsp), %sil           # 1-byte Reload
	movq	%r15, %rdi
	jne	.LBB48_782
	jmp	.LBB48_709
.LBB48_222:                             #   in Loop: Header=BB48_17 Depth=1
	movq	384(%r13), %rdi
	testq	%rdi, %rdi
	je	.LBB48_224
# %bb.223:                              #   in Loop: Header=BB48_17 Depth=1
	movq	%r9, %rbx
	callq	myFree
	movq	%rbx, %r9
	movq	$0, 384(%r13)
.LBB48_224:                             #   in Loop: Header=BB48_17 Depth=1
	testq	%r9, %r9
	je	.LBB48_226
# %bb.225:                              #   in Loop: Header=BB48_17 Depth=1
	movq	%r9, %rdi
	movq	%r9, %rbx
	callq	strdup
	movq	%rbx, %r9
	movq	%rax, 384(%r13)
	testq	%rax, %rax
	je	.LBB48_709
.LBB48_226:                             #   in Loop: Header=BB48_17 Depth=1
	movl	$0, 392(%r13)
	jmp	.LBB48_317
.LBB48_227:                             #   in Loop: Header=BB48_17 Depth=1
	movb	$1, 89(%r13)
	movq	$0, 136(%r13)
	movq	%rbp, %r9
.LBB48_228:                             #   in Loop: Header=BB48_17 Depth=1
	movb	$1, 88(%r13)
	jmp	.LBB48_816
.LBB48_229:                             #   in Loop: Header=BB48_17 Depth=1
	movb	$0, 452(%r13)
.LBB48_230:                             #   in Loop: Header=BB48_17 Depth=1
	xorl	%ebx, %ebx
	movq	%rbp, %r9
	cmpb	$0, (%rbp)
	cmovneq	%rbp, %rbx
	movq	160(%r13), %rdi
	testq	%rdi, %rdi
	je	.LBB48_232
# %bb.231:                              #   in Loop: Header=BB48_17 Depth=1
	callq	myFree
	movq	%rbp, %r9
	movq	$0, 160(%r13)
.LBB48_232:                             #   in Loop: Header=BB48_17 Depth=1
	testq	%rbx, %rbx
	je	.LBB48_816
# %bb.233:                              #   in Loop: Header=BB48_17 Depth=1
	movq	%rbx, %rdi
	callq	strdup
	movq	%rbp, %r9
	movq	%rax, 160(%r13)
	jmp	.LBB48_234
.LBB48_235:                             #   in Loop: Header=BB48_17 Depth=1
	movl	$0, 44(%r12)
	jmp	.LBB48_782
.LBB48_236:                             #   in Loop: Header=BB48_17 Depth=1
	movq	%rdi, %rbp
	movq	200(%r13), %rdi
	testq	%rdi, %rdi
	je	.LBB48_238
# %bb.237:                              #   in Loop: Header=BB48_17 Depth=1
	movq	%r9, %rbx
	callq	myFree
	movq	%rbx, %r9
	movq	$0, 200(%r13)
.LBB48_238:                             #   in Loop: Header=BB48_17 Depth=1
	testq	%r9, %r9
	je	.LBB48_722
# %bb.239:                              #   in Loop: Header=BB48_17 Depth=1
	movq	%r9, %rdi
	movq	%r9, %rbx
	callq	strdup
	movq	%rbx, %r9
	movq	%rax, 200(%r13)
	jmp	.LBB48_781
.LBB48_240:                             #   in Loop: Header=BB48_17 Depth=1
	incq	%r9
	movq	416(%rsp), %rdi         # 8-byte Reload
	jmp	.LBB48_242
.LBB48_241:                             #   in Loop: Header=BB48_17 Depth=1
	movq	400(%rsp), %rdi         # 8-byte Reload
.LBB48_242:                             #   in Loop: Header=BB48_17 Depth=1
	movq	%r9, %rbx
	movq	%r9, %rsi
	callq	add2list
	movl	%eax, %ebp
	testl	%eax, %eax
.LBB48_243:                             #   in Loop: Header=BB48_17 Depth=1
	movq	%rbx, %r9
	movl	4(%rsp), %edx           # 4-byte Reload
	movb	8(%rsp), %sil           # 1-byte Reload
	movq	%r14, %rdi
	je	.LBB48_782
	jmp	.LBB48_10
.LBB48_244:                             #   in Loop: Header=BB48_17 Depth=1
	movq	curlinfo(%rip), %rax
	testb	$16, 35(%rax)
	je	.LBB48_841
# %bb.245:                              #   in Loop: Header=BB48_17 Depth=1
	movq	%rdi, %rbp
	movq	64(%r13), %rdi
	testq	%rdi, %rdi
	je	.LBB48_247
# %bb.246:                              #   in Loop: Header=BB48_17 Depth=1
	movq	%r9, %rbx
	callq	myFree
	movq	%rbx, %r9
	movq	$0, 64(%r13)
.LBB48_247:                             #   in Loop: Header=BB48_17 Depth=1
	testq	%r9, %r9
	je	.LBB48_722
# %bb.248:                              #   in Loop: Header=BB48_17 Depth=1
	movq	%r9, %rdi
	movq	%r9, %rbx
	callq	strdup
	movq	%rbx, %r9
	movq	%rax, 64(%r13)
	jmp	.LBB48_781
.LBB48_249:                             #   in Loop: Header=BB48_17 Depth=1
	movq	%rdi, %r14
	cmpb	$64, (%r9)
	jne	.LBB48_308
# %bb.250:                              #   in Loop: Header=BB48_17 Depth=1
	incq	%r9
	jmp	.LBB48_370
.LBB48_251:                             #   in Loop: Header=BB48_17 Depth=1
	movq	%rdi, %rbp
	movq	464(%r13), %rdi
	testq	%rdi, %rdi
	je	.LBB48_253
# %bb.252:                              #   in Loop: Header=BB48_17 Depth=1
	movq	%r9, %rbx
	callq	myFree
	movq	%rbx, %r9
	movq	$0, 464(%r13)
.LBB48_253:                             #   in Loop: Header=BB48_17 Depth=1
	testq	%r9, %r9
	je	.LBB48_722
# %bb.254:                              #   in Loop: Header=BB48_17 Depth=1
	movq	%r9, %rdi
	movq	%r9, %rbx
	callq	strdup
	movq	%rbx, %r9
	movq	%rax, 464(%r13)
	jmp	.LBB48_781
.LBB48_255:                             #   in Loop: Header=BB48_17 Depth=1
	movb	%dl, 461(%r13)
	jmp	.LBB48_782
.LBB48_256:                             #   in Loop: Header=BB48_17 Depth=1
	cmpl	$65, %eax
	je	.LBB48_321
# %bb.257:                              #   in Loop: Header=BB48_17 Depth=1
	cmpl	$66, %eax
	jne	.LBB48_782
# %bb.258:                              #   in Loop: Header=BB48_17 Depth=1
	movq	%rdi, %rbp
	movq	544(%r13), %rdi
	testq	%rdi, %rdi
	je	.LBB48_260
# %bb.259:                              #   in Loop: Header=BB48_17 Depth=1
	movq	%r9, %rbx
	callq	myFree
	movq	%rbx, %r9
	movq	$0, 544(%r13)
.LBB48_260:                             #   in Loop: Header=BB48_17 Depth=1
	testq	%r9, %r9
	je	.LBB48_722
# %bb.261:                              #   in Loop: Header=BB48_17 Depth=1
	movq	%r9, %rdi
	movq	%r9, %rbx
	callq	strdup
	movq	%rbx, %r9
	movq	%rax, 544(%r13)
	jmp	.LBB48_781
.LBB48_262:                             #   in Loop: Header=BB48_17 Depth=1
	movb	%dl, 66(%r12)
	jmp	.LBB48_782
.LBB48_263:                             #   in Loop: Header=BB48_17 Depth=1
	movq	%rdi, %r14
	movq	392(%rsp), %rbp         # 8-byte Reload
	movq	%rbp, %rdi
	movq	%r9, %rbx
	movq	%r9, %rsi
	callq	str2unum
	testl	%eax, %eax
	jne	.LBB48_840
# %bb.264:                              #   in Loop: Header=BB48_17 Depth=1
	movq	(%rbp), %rax
	decq	%rax
	cmpq	$300, %rax              # imm = 0x12C
	movl	4(%rsp), %edx           # 4-byte Reload
	jb	.LBB48_266
# %bb.265:                              #   in Loop: Header=BB48_17 Depth=1
	movq	$50, (%rbp)
.LBB48_266:                             #   in Loop: Header=BB48_17 Depth=1
	movq	%rbx, %r9
	jmp	.LBB48_817
.LBB48_267:                             #   in Loop: Header=BB48_17 Depth=1
	movq	%rdi, %rbp
	movl	$3, 880(%r13)
	jmp	.LBB48_269
.LBB48_268:                             #   in Loop: Header=BB48_17 Depth=1
	movq	%rdi, %rbp
	movl	$2, 880(%r13)
.LBB48_269:                             #   in Loop: Header=BB48_17 Depth=1
	incq	%r9
.LBB48_270:                             #   in Loop: Header=BB48_17 Depth=1
	movq	%r9, %rbx
	xorl	%edi, %edi
	callq	time
	leaq	464(%rsp), %rsi
	movq	%rax, (%rsi)
	movq	%rbx, %rdi
	callq	curl_getdate
	movq	%rax, 888(%r13)
	cmpq	$-1, %rax
	je	.LBB48_272
.LBB48_271:                             #   in Loop: Header=BB48_17 Depth=1
	movq	%rbx, %r9
	jmp	.LBB48_317
.LBB48_272:                             #   in Loop: Header=BB48_17 Depth=1
	movq	%rbx, %r14
	movq	%rbx, %rdi
	movq	%r12, %rsi
	callq	getfiletime
	testq	%rax, %rax
	js	.LBB48_315
# %bb.273:                              #   in Loop: Header=BB48_17 Depth=1
	movq	%rax, 888(%r13)
	jmp	.LBB48_316
.LBB48_274:                             #   in Loop: Header=BB48_17 Depth=1
	movq	%r9, 24(%rsp)           # 8-byte Spill
	movq	%r9, %rdi
	callq	strdup
	movq	%rax, 64(%rsp)
	testq	%rax, %rax
	je	.LBB48_709
# %bb.275:                              #   in Loop: Header=BB48_17 Depth=1
	movq	%rax, %r12
	movq	%rax, %rdi
	callq	strlen
	movq	%rax, 32(%rsp)
	jmp	.LBB48_364
.LBB48_276:                             #   in Loop: Header=BB48_17 Depth=1
	testl	%eax, %eax
	jne	.LBB48_782
# %bb.277:                              #   in Loop: Header=BB48_17 Depth=1
	movq	$1, 776(%r13)
	jmp	.LBB48_782
.LBB48_278:                             #   in Loop: Header=BB48_17 Depth=1
	movb	%dl, 453(%r13)
	movl	%edx, %eax
	jmp	.LBB48_283
.LBB48_279:                             #   in Loop: Header=BB48_17 Depth=1
	movb	%dl, 65(%r12)
	jmp	.LBB48_282
.LBB48_280:                             #   in Loop: Header=BB48_17 Depth=1
	movb	%dl, 432(%r13)
	jmp	.LBB48_282
.LBB48_281:                             #   in Loop: Header=BB48_17 Depth=1
	movb	%dl, 454(%r13)
.LBB48_282:                             #   in Loop: Header=BB48_17 Depth=1
	movb	453(%r13), %al
.LBB48_283:                             #   in Loop: Header=BB48_17 Depth=1
	testb	%al, %al
	je	.LBB48_782
# %bb.284:                              #   in Loop: Header=BB48_17 Depth=1
	cmpb	$0, 454(%r13)
	je	.LBB48_782
	jmp	.LBB48_285
.LBB48_286:                             #   in Loop: Header=BB48_17 Depth=1
	testl	%eax, %eax
	jne	.LBB48_782
# %bb.287:                              #   in Loop: Header=BB48_17 Depth=1
	movq	$1, 840(%r13)
	jmp	.LBB48_782
.LBB48_288:                             #   in Loop: Header=BB48_17 Depth=1
	movq	stdin(%rip), %r13
.LBB48_289:                             #   in Loop: Header=BB48_17 Depth=1
	testq	%r13, %r13
	je	.LBB48_303
# %bb.290:                              #   in Loop: Header=BB48_17 Depth=1
	leaq	64(%rsp), %rdi
	leaq	32(%rsp), %rsi
	movq	%r13, %rdx
	callq	file2memory
	movl	%eax, %ebp
	testl	%eax, %eax
	jne	.LBB48_374
# %bb.291:                              #   in Loop: Header=BB48_17 Depth=1
	movq	64(%rsp), %rdi
	testq	%rdi, %rdi
	je	.LBB48_374
# %bb.292:                              #   in Loop: Header=BB48_17 Depth=1
	movl	$.L.str.23.127, %esi
	callq	strtok
	testq	%rax, %rax
	je	.LBB48_371
# %bb.293:                              #   in Loop: Header=BB48_17 Depth=1
	cmpb	$112, %r14b
	movq	168(%rsp), %r14         # 8-byte Reload
	cmoveq	160(%rsp), %r14         # 8-byte Folded Reload
.LBB48_294:                             #   Parent Loop BB48_17 Depth=1
                                        # =>  This Inner Loop Header: Depth=2
	movq	%r14, %rdi
	movq	%rax, %rsi
	callq	add2list
	testl	%eax, %eax
	jne	.LBB48_372
# %bb.295:                              #   in Loop: Header=BB48_294 Depth=2
	xorl	%ebp, %ebp
	movl	$.L.str.23.127, %esi
	xorl	%edi, %edi
	callq	strtok
	testq	%rax, %rax
	jne	.LBB48_294
	jmp	.LBB48_373
.LBB48_296:                             #   in Loop: Header=BB48_17 Depth=1
	movl	$.L.str.31.131, %r14d
	movq	stdin(%rip), %rbp
.LBB48_297:                             #   in Loop: Header=BB48_17 Depth=1
	movq	112(%rsp), %rbx         # 8-byte Reload
	movq	(%rbx), %rdi
	callq	myFree
	xorl	%eax, %eax
	movq	%rax, (%rbx)
	movq	%rbx, %rdi
	movq	%rbp, %rsi
	callq	file2string
	movl	%eax, %ebx
	testq	%rbp, %rbp
	je	.LBB48_300
# %bb.298:                              #   in Loop: Header=BB48_17 Depth=1
	cmpq	stdin(%rip), %rbp
	je	.LBB48_300
# %bb.299:                              #   in Loop: Header=BB48_17 Depth=1
	movq	%rbp, %rdi
	callq	fclose
.LBB48_300:                             #   in Loop: Header=BB48_17 Depth=1
	testl	%ebx, %ebx
	jne	.LBB48_854
# %bb.301:                              #   in Loop: Header=BB48_17 Depth=1
	movq	112(%rsp), %rax         # 8-byte Reload
	cmpq	$0, (%rax)
	jne	.LBB48_378
# %bb.302:                              #   in Loop: Header=BB48_17 Depth=1
	movl	$.L.str.32, %esi
	movq	%r12, %rdi
	movq	%r14, %rdx
	xorl	%eax, %eax
	callq	warnf
	jmp	.LBB48_378
.LBB48_303:                             #   in Loop: Header=BB48_17 Depth=1
	movl	$.L.str.7.111, %esi
	movq	%r12, %rdi
	movq	%rbp, %rdx
	xorl	%eax, %eax
	callq	warnf
	jmp	.LBB48_377
.LBB48_304:                             #   in Loop: Header=BB48_17 Depth=1
	movl	$.L.str.28, %esi
	movq	%r12, %rdi
	xorl	%eax, %eax
	callq	warnf
.LBB48_305:                             #   in Loop: Header=BB48_17 Depth=1
	movq	256(%r13), %rdi
	testq	%rdi, %rdi
	je	.LBB48_307
# %bb.306:                              #   in Loop: Header=BB48_17 Depth=1
	callq	myFree
	movq	$0, 256(%r13)
.LBB48_307:                             #   in Loop: Header=BB48_17 Depth=1
	movq	%rbp, %rbx
	movq	%rbp, %rdi
	callq	strdup
	movq	%rbp, %r9
	movq	%rax, 256(%r13)
	jmp	.LBB48_234
.LBB48_308:                             #   in Loop: Header=BB48_17 Depth=1
	movq	%r9, %rdi
	movl	$61, %esi
	movq	%r9, %rbx
	callq	strchr
	testq	%rax, %rax
	je	.LBB48_369
# %bb.309:                              #   in Loop: Header=BB48_17 Depth=1
	movq	376(%rsp), %rdi         # 8-byte Reload
	movq	%rbx, %rsi
	callq	add2list
.LBB48_796:                             #   in Loop: Header=BB48_17 Depth=1
	testl	%eax, %eax
	movq	%rbx, %r9
	jmp	.LBB48_797
.LBB48_310:                             #   in Loop: Header=BB48_17 Depth=1
	movq	$3, 776(%r13)
	jmp	.LBB48_782
.LBB48_311:                             #   in Loop: Header=BB48_17 Depth=1
	movq	$5, 776(%r13)
	jmp	.LBB48_782
.LBB48_312:                             #   in Loop: Header=BB48_17 Depth=1
	movq	curlinfo(%rip), %rax
	testb	$2, 35(%rax)
	je	.LBB48_841
# %bb.313:                              #   in Loop: Header=BB48_17 Depth=1
	movq	$30, 776(%r13)
	jmp	.LBB48_782
.LBB48_314:                             #   in Loop: Header=BB48_17 Depth=1
	movb	%dl, 784(%r13)
	jmp	.LBB48_782
.LBB48_315:                             #   in Loop: Header=BB48_17 Depth=1
	movl	$0, 880(%r13)
	movl	$.L.str.33, %esi
	movq	%r12, %rdi
	xorl	%eax, %eax
	callq	warnf
.LBB48_316:                             #   in Loop: Header=BB48_17 Depth=1
	movq	%r14, %r9
	jmp	.LBB48_317
.LBB48_318:                             #   in Loop: Header=BB48_17 Depth=1
	movq	$5, 840(%r13)
	jmp	.LBB48_782
.LBB48_319:                             #   in Loop: Header=BB48_17 Depth=1
	movq	$6, 840(%r13)
	jmp	.LBB48_782
.LBB48_320:                             #   in Loop: Header=BB48_17 Depth=1
	movq	$7, 840(%r13)
	jmp	.LBB48_782
.LBB48_321:                             #   in Loop: Header=BB48_17 Depth=1
	movq	%rdi, %rbp
	movq	536(%r13), %rdi
	testq	%rdi, %rdi
	je	.LBB48_323
# %bb.322:                              #   in Loop: Header=BB48_17 Depth=1
	movq	%r9, %rbx
	callq	myFree
	movq	%rbx, %r9
	movq	$0, 536(%r13)
.LBB48_323:                             #   in Loop: Header=BB48_17 Depth=1
	testq	%r9, %r9
	je	.LBB48_722
# %bb.324:                              #   in Loop: Header=BB48_17 Depth=1
	movq	%r9, %rdi
	movq	%r9, %rbx
	callq	strdup
	movq	%rbx, %r9
	movq	%rax, 536(%r13)
.LBB48_781:                             #   in Loop: Header=BB48_17 Depth=1
	testq	%rax, %rax
	movl	4(%rsp), %edx           # 4-byte Reload
	movb	8(%rsp), %sil           # 1-byte Reload
	movq	%rbp, %rdi
	jne	.LBB48_782
	jmp	.LBB48_709
.LBB48_325:                             #   in Loop: Header=BB48_17 Depth=1
	movq	stdin(%rip), %r13
.LBB48_326:                             #   in Loop: Header=BB48_17 Depth=1
	cmpb	$98, %r14b
	jne	.LBB48_328
# %bb.327:                              #   in Loop: Header=BB48_17 Depth=1
	leaq	64(%rsp), %rdi
	leaq	32(%rsp), %rsi
	movq	%r13, %rdx
	callq	file2memory
	movl	%eax, %ebp
	jmp	.LBB48_330
.LBB48_328:                             #   in Loop: Header=BB48_17 Depth=1
	leaq	64(%rsp), %r14
	movq	%r14, %rdi
	movq	%r13, %rsi
	callq	file2string
	movl	%eax, %ebp
	movq	(%r14), %rdi
	testq	%rdi, %rdi
	je	.LBB48_330
# %bb.329:                              #   in Loop: Header=BB48_17 Depth=1
	callq	strlen
	movq	%rax, 32(%rsp)
.LBB48_330:                             #   in Loop: Header=BB48_17 Depth=1
	testq	%r13, %r13
	je	.LBB48_333
# %bb.331:                              #   in Loop: Header=BB48_17 Depth=1
	cmpq	stdin(%rip), %r13
	je	.LBB48_333
# %bb.332:                              #   in Loop: Header=BB48_17 Depth=1
	movq	%r13, %rdi
	callq	fclose
.LBB48_333:                             #   in Loop: Header=BB48_17 Depth=1
	testl	%ebp, %ebp
	jne	.LBB48_10
# %bb.334:                              #   in Loop: Header=BB48_17 Depth=1
	movq	64(%rsp), %r12
	testq	%r12, %r12
	je	.LBB48_336
# %bb.335:                              #   in Loop: Header=BB48_17 Depth=1
	movq	%rbx, %r13
	jmp	.LBB48_364
.LBB48_336:                             #   in Loop: Header=BB48_17 Depth=1
	movl	$.L.str.16.120, %edi
	callq	strdup
	movq	%rax, %r12
	movq	%rax, 64(%rsp)
	testq	%rax, %rax
	movq	%rbx, %r13
	jne	.LBB48_364
	jmp	.LBB48_709
.LBB48_337:                             #   in Loop: Header=BB48_17 Depth=1
	movq	stdin(%rip), %rbx
.LBB48_338:                             #   in Loop: Header=BB48_17 Depth=1
	leaq	64(%rsp), %rdi
	leaq	32(%rsp), %rsi
	movq	%rbx, %rdx
	callq	file2memory
	movl	%eax, %ebp
	testq	%rbx, %rbx
	je	.LBB48_341
# %bb.339:                              #   in Loop: Header=BB48_17 Depth=1
	cmpq	stdin(%rip), %rbx
	je	.LBB48_341
# %bb.340:                              #   in Loop: Header=BB48_17 Depth=1
	movq	%rbx, %rdi
	callq	fclose
.LBB48_341:                             #   in Loop: Header=BB48_17 Depth=1
	testl	%ebp, %ebp
	jne	.LBB48_10
# %bb.342:                              #   in Loop: Header=BB48_17 Depth=1
	movq	64(%rsp), %rbx
	testq	%rbx, %rbx
	jne	.LBB48_349
	jmp	.LBB48_343
.LBB48_345:                             #   in Loop: Header=BB48_17 Depth=1
	testq	%rbp, %rbp
	je	.LBB48_343
# %bb.346:                              #   in Loop: Header=BB48_17 Depth=1
	xorl	%r15d, %r15d
	movq	24(%rsp), %rbx          # 8-byte Reload
.LBB48_347:                             #   in Loop: Header=BB48_17 Depth=1
	movq	%rbx, %rdi
	callq	strdup
	movq	%rax, 64(%rsp)
	testq	%rax, %rax
	je	.LBB48_709
# %bb.348:                              #   in Loop: Header=BB48_17 Depth=1
	movq	%rax, %rbx
	movq	%rax, %rdi
	callq	strlen
	movq	%rax, 32(%rsp)
.LBB48_349:                             #   in Loop: Header=BB48_17 Depth=1
	movl	32(%rsp), %edx
	xorl	%ebp, %ebp
	xorl	%edi, %edi
	movq	%rbx, %rsi
	callq	curl_easy_escape
	movq	%rax, %r14
	movq	64(%rsp), %rdi
	callq	myFree
	movq	%rbp, 64(%rsp)
	movl	$14, %ebp
	testq	%r14, %r14
	je	.LBB48_10
# %bb.350:                              #   in Loop: Header=BB48_17 Depth=1
	movq	%r14, %rdi
	callq	strlen
	xorl	%ebx, %ebx
	testq	%rax, %rax
	je	.LBB48_359
# %bb.351:                              # %.preheader
                                        #   in Loop: Header=BB48_17 Depth=1
	xorl	%ecx, %ecx
.LBB48_352:                             #   Parent Loop BB48_17 Depth=1
                                        # =>  This Inner Loop Header: Depth=2
	movb	(%r14,%rcx), %dl
	cmpb	$37, %dl
	jne	.LBB48_356
# %bb.353:                              #   in Loop: Header=BB48_352 Depth=2
	cmpb	$50, 1(%rcx,%r14)
	jne	.LBB48_356
# %bb.354:                              #   in Loop: Header=BB48_352 Depth=2
	cmpb	$48, 2(%rcx,%r14)
	jne	.LBB48_356
# %bb.355:                              #   in Loop: Header=BB48_352 Depth=2
	movl	$3, %esi
	movb	$43, %dl
	jmp	.LBB48_357
.LBB48_356:                             #   in Loop: Header=BB48_352 Depth=2
	movl	$1, %esi
	cmpq	%rcx, %rbx
	je	.LBB48_358
.LBB48_357:                             #   in Loop: Header=BB48_352 Depth=2
	movb	%dl, (%r14,%rbx)
.LBB48_358:                             #   in Loop: Header=BB48_352 Depth=2
	addq	%rsi, %rcx
	incq	%rbx
	cmpq	%rax, %rcx
	jb	.LBB48_352
.LBB48_359:                             #   in Loop: Header=BB48_17 Depth=1
	movq	%r13, 56(%rsp)          # 8-byte Spill
	movb	$0, (%r14,%rbx)
	leaq	(%rbx,%r15), %r13
	addq	$2, %r13
	movq	%r13, %rdi
	callq	myMalloc
	testq	%rax, %rax
	je	.LBB48_855
# %bb.360:                              #   in Loop: Header=BB48_17 Depth=1
	movq	%rax, %r12
	addq	%r15, %rbx
	testq	%r15, %r15
	je	.LBB48_362
# %bb.361:                              #   in Loop: Header=BB48_17 Depth=1
	movl	$.L.str.17.121, %edx
	movq	%r12, %rdi
	movq	%r13, %rsi
	movq	%r15, %rcx
	movq	24(%rsp), %r8           # 8-byte Reload
	movq	%r14, %r9
	xorl	%eax, %eax
	callq	curl_msnprintf
	incq	%rbx
	jmp	.LBB48_363
.LBB48_362:                             #   in Loop: Header=BB48_17 Depth=1
	movq	%r12, %rdi
	movq	%r14, %rsi
	callq	strcpy
.LBB48_363:                             #   in Loop: Header=BB48_17 Depth=1
	movq	56(%rsp), %r13          # 8-byte Reload
	movq	%rbx, 32(%rsp)
	movq	%r14, %rdi
	callq	curl_free
	movq	%r12, 64(%rsp)
	jmp	.LBB48_364
.LBB48_343:                             #   in Loop: Header=BB48_17 Depth=1
	movl	$.L.str.16.120, %edi
	callq	strdup
	movq	%rax, 64(%rsp)
	testq	%rax, %rax
	je	.LBB48_709
# %bb.344:                              #   in Loop: Header=BB48_17 Depth=1
	movq	%rax, %r12
	movq	$0, 32(%rsp)
.LBB48_364:                             #   in Loop: Header=BB48_17 Depth=1
	movq	144(%r13), %r14
	testq	%r14, %r14
	je	.LBB48_367
# %bb.365:                              #   in Loop: Header=BB48_17 Depth=1
	movq	152(%r13), %rbx
	movq	32(%rsp), %rdi
	callq	curlx_uztoso
	leaq	(%rbx,%rax), %rdi
	addq	$2, %rdi
	callq	myMalloc
	movq	%rax, 144(%r13)
	testq	%rax, %rax
	je	.LBB48_853
# %bb.366:                              #   in Loop: Header=BB48_17 Depth=1
	movq	%rax, %rbp
	movq	%rax, %rdi
	movq	%r14, %rsi
	movq	%rbx, %rdx
	callq	memcpy
	movb	$38, (%rbp,%rbx)
	leaq	(%rbx,%rbp), %rdi
	incq	%rdi
	movq	64(%rsp), %rsi
	movq	%r13, %r15
	movq	32(%rsp), %r13
	movq	%r13, %rdx
	callq	memcpy
	leaq	(%rbx,%r13), %rax
	incq	%rax
	movq	%r15, %r13
	movb	$0, (%rbp,%rax)
	movq	%r14, %rdi
	callq	myFree
	movq	64(%rsp), %rdi
	callq	myFree
	movq	$0, 64(%rsp)
	movq	32(%rsp), %rax
	movq	152(%r15), %rcx
	addq	%rcx, %rax
	incq	%rax
	jmp	.LBB48_368
.LBB48_367:                             #   in Loop: Header=BB48_17 Depth=1
	movq	%r12, 144(%r13)
	movq	32(%rsp), %rdi
	callq	curlx_uztoso
.LBB48_368:                             #   in Loop: Header=BB48_17 Depth=1
	movq	%rax, 152(%r13)
	movq	104(%rsp), %r12         # 8-byte Reload
	movq	24(%rsp), %r9           # 8-byte Reload
	movl	4(%rsp), %edx           # 4-byte Reload
	movb	8(%rsp), %sil           # 1-byte Reload
	movq	208(%rsp), %rdi         # 8-byte Reload
	jmp	.LBB48_782
.LBB48_369:                             #   in Loop: Header=BB48_17 Depth=1
	movq	%rbx, %r9
.LBB48_370:                             #   in Loop: Header=BB48_17 Depth=1
	movq	384(%rsp), %rdi         # 8-byte Reload
	movq	%r9, %rsi
	movq	%r9, %rbx
	callq	add2list
	movq	%rbx, %r9
	testl	%eax, %eax
.LBB48_797:                             #   in Loop: Header=BB48_17 Depth=1
	movl	4(%rsp), %edx           # 4-byte Reload
	movb	8(%rsp), %sil           # 1-byte Reload
	movq	%r14, %rdi
	je	.LBB48_782
	jmp	.LBB48_840
.LBB48_371:                             #   in Loop: Header=BB48_17 Depth=1
	xorl	%ebp, %ebp
	jmp	.LBB48_373
.LBB48_372:                             #   in Loop: Header=BB48_17 Depth=1
	movl	%eax, %ebp
.LBB48_373:                             #   in Loop: Header=BB48_17 Depth=1
	movq	64(%rsp), %rdi
	callq	myFree
.LBB48_374:                             #   in Loop: Header=BB48_17 Depth=1
	testl	%ebx, %ebx
	je	.LBB48_376
# %bb.375:                              #   in Loop: Header=BB48_17 Depth=1
	movq	%r13, %rdi
	callq	fclose
.LBB48_376:                             #   in Loop: Header=BB48_17 Depth=1
	testl	%ebp, %ebp
	jne	.LBB48_10
.LBB48_377:                             #   in Loop: Header=BB48_17 Depth=1
	movq	56(%rsp), %r13          # 8-byte Reload
.LBB48_378:                             #   in Loop: Header=BB48_17 Depth=1
	movq	24(%rsp), %r9           # 8-byte Reload
	movl	4(%rsp), %edx           # 4-byte Reload
	movb	8(%rsp), %sil           # 1-byte Reload
	movq	%r15, %rdi
	jmp	.LBB48_782
.LBB48_379:                             #   in Loop: Header=BB48_17 Depth=1
	testl	%eax, %eax
	jne	.LBB48_10
# %bb.380:                              #   in Loop: Header=BB48_17 Depth=1
	movq	%rdi, %rbp
	movq	%r9, %rdi
	movq	216(%rsp), %rsi         # 8-byte Reload
	movq	144(%rsp), %rdx         # 8-byte Reload
	jmp	.LBB48_636
.LBB48_381:                             #   in Loop: Header=BB48_17 Depth=1
	movq	%rdi, %rbp
	movq	304(%r13), %rdi
	testq	%rdi, %rdi
	je	.LBB48_383
# %bb.382:                              #   in Loop: Header=BB48_17 Depth=1
	movq	%r9, %rbx
	callq	myFree
	movq	%rbx, %r9
	movq	$0, 304(%r13)
.LBB48_383:                             #   in Loop: Header=BB48_17 Depth=1
	testq	%r9, %r9
	je	.LBB48_722
# %bb.384:                              #   in Loop: Header=BB48_17 Depth=1
	movq	%r9, %rdi
	movq	%r9, %rbx
	callq	strdup
	movq	%rbx, %r9
	movq	%rax, 304(%r13)
	jmp	.LBB48_781
.LBB48_385:                             #   in Loop: Header=BB48_17 Depth=1
	movq	488(%r13), %rbx
	testq	%rbx, %rbx
	jne	.LBB48_388
# %bb.386:                              #   in Loop: Header=BB48_17 Depth=1
	movq	472(%r13), %rbx
	jmp	.LBB48_387
.LBB48_390:                             #   in Loop: Header=BB48_17 Depth=1
	movq	%rdi, %rbp
	movq	1152(%r13), %rdi
	testq	%rdi, %rdi
	je	.LBB48_392
# %bb.391:                              #   in Loop: Header=BB48_17 Depth=1
	movq	%r9, %rbx
	callq	myFree
	movq	%rbx, %r9
	movq	$0, 1152(%r13)
.LBB48_392:                             #   in Loop: Header=BB48_17 Depth=1
	testq	%r9, %r9
	je	.LBB48_394
# %bb.393:                              #   in Loop: Header=BB48_17 Depth=1
	movq	%r9, %rdi
	movq	%r9, %rbx
	callq	strdup
	movq	%rbx, %r9
	movq	%rax, 1152(%r13)
	testq	%rax, %rax
	je	.LBB48_709
.LBB48_394:                             #   in Loop: Header=BB48_17 Depth=1
	movq	40(%rsp), %rax          # 8-byte Reload
	orb	$64, (%rax)
	jmp	.LBB48_317
.LBB48_395:                             #   in Loop: Header=BB48_17 Depth=1
	movq	%rdi, %rbp
	movq	512(%r13), %rdi
	testq	%rdi, %rdi
	je	.LBB48_397
# %bb.396:                              #   in Loop: Header=BB48_17 Depth=1
	movq	%r9, %rbx
	callq	myFree
	movq	%rbx, %r9
	movq	$0, 512(%r13)
.LBB48_397:                             #   in Loop: Header=BB48_17 Depth=1
	testq	%r9, %r9
	je	.LBB48_722
# %bb.398:                              #   in Loop: Header=BB48_17 Depth=1
	movq	%r9, %rdi
	movq	%r9, %rbx
	callq	strdup
	movq	%rbx, %r9
	movq	%rax, 512(%r13)
	jmp	.LBB48_781
.LBB48_399:                             #   in Loop: Header=BB48_17 Depth=1
	movq	%rdi, %rbp
	movq	288(%r13), %rdi
	testq	%rdi, %rdi
	je	.LBB48_401
# %bb.400:                              #   in Loop: Header=BB48_17 Depth=1
	movq	%r9, %rbx
	callq	myFree
	movq	%rbx, %r9
	movq	$0, 288(%r13)
.LBB48_401:                             #   in Loop: Header=BB48_17 Depth=1
	testq	%r9, %r9
	je	.LBB48_722
# %bb.402:                              #   in Loop: Header=BB48_17 Depth=1
	movq	%r9, %rdi
	movq	%r9, %rbx
	callq	strdup
	movq	%rbx, %r9
	movq	%rax, 288(%r13)
	jmp	.LBB48_781
.LBB48_403:                             #   in Loop: Header=BB48_17 Depth=1
	movb	23(%rsp), %al           # 1-byte Reload
	movb	%al, 90(%r13)
	jmp	.LBB48_782
.LBB48_404:                             #   in Loop: Header=BB48_17 Depth=1
	movq	%rdi, %rbp
	movq	280(%r13), %rdi
	testq	%rdi, %rdi
	je	.LBB48_406
# %bb.405:                              #   in Loop: Header=BB48_17 Depth=1
	movq	%r9, %rbx
	callq	myFree
	movq	%rbx, %r9
	movq	$0, 280(%r13)
.LBB48_406:                             #   in Loop: Header=BB48_17 Depth=1
	testq	%r9, %r9
	je	.LBB48_722
# %bb.407:                              #   in Loop: Header=BB48_17 Depth=1
	movq	%r9, %rdi
	movq	%r9, %rbx
	callq	strdup
	movq	%rbx, %r9
	movq	%rax, 280(%r13)
	jmp	.LBB48_781
.LBB48_408:                             #   in Loop: Header=BB48_17 Depth=1
	movb	23(%rsp), %al           # 1-byte Reload
	movb	%al, 1160(%r13)
	jmp	.LBB48_782
.LBB48_409:                             #   in Loop: Header=BB48_17 Depth=1
	movb	23(%rsp), %al           # 1-byte Reload
	movb	%al, 1161(%r13)
	jmp	.LBB48_782
.LBB48_410:                             #   in Loop: Header=BB48_17 Depth=1
	movb	%dl, 74(%r13)
	jmp	.LBB48_782
.LBB48_411:                             #   in Loop: Header=BB48_17 Depth=1
	testb	%dl, %dl
	je	.LBB48_786
# %bb.412:                              #   in Loop: Header=BB48_17 Depth=1
	movq	curlinfo(%rip), %rax
	cmpw	$0, 32(%rax)
	movq	40(%rsp), %rax          # 8-byte Reload
	jns	.LBB48_841
# %bb.413:                              #   in Loop: Header=BB48_17 Depth=1
	orb	$32, (%rax)
	jmp	.LBB48_782
.LBB48_414:                             #   in Loop: Header=BB48_17 Depth=1
	movl	$511, %edx              # imm = 0x1FF
	movq	%rdi, %rbp
	movq	360(%rsp), %rdi         # 8-byte Reload
	movq	%r9, %rsi
	movq	%r9, %rbx
	callq	oct2nummax
	jmp	.LBB48_712
.LBB48_415:                             #   in Loop: Header=BB48_17 Depth=1
	movq	%rdi, %rbp
	orb	$-128, 80(%r13)
	movq	1224(%r13), %rdi
	testq	%rdi, %rdi
	je	.LBB48_417
# %bb.416:                              #   in Loop: Header=BB48_17 Depth=1
	movq	%r9, %rbx
	callq	myFree
	movq	%rbx, %r9
	movq	$0, 1224(%r13)
.LBB48_417:                             #   in Loop: Header=BB48_17 Depth=1
	testq	%r9, %r9
	je	.LBB48_722
# %bb.418:                              #   in Loop: Header=BB48_17 Depth=1
	movq	%r9, %rdi
	movq	%r9, %rbx
	callq	strdup
	movq	%rbx, %r9
	movq	%rax, 1224(%r13)
	jmp	.LBB48_781
.LBB48_419:                             #   in Loop: Header=BB48_17 Depth=1
	movb	%dl, 1216(%r13)
	jmp	.LBB48_782
.LBB48_420:                             #   in Loop: Header=BB48_17 Depth=1
	movb	23(%rsp), %al           # 1-byte Reload
	movb	%al, 91(%r13)
	jmp	.LBB48_782
.LBB48_421:                             #   in Loop: Header=BB48_17 Depth=1
	movq	%rdi, %rbp
	movq	8(%r13), %rdi
	testq	%rdi, %rdi
	je	.LBB48_423
# %bb.422:                              #   in Loop: Header=BB48_17 Depth=1
	movq	%r9, %rbx
	callq	myFree
	movq	%rbx, %r9
	movq	$0, 8(%r13)
.LBB48_423:                             #   in Loop: Header=BB48_17 Depth=1
	testq	%r9, %r9
	je	.LBB48_722
# %bb.424:                              #   in Loop: Header=BB48_17 Depth=1
	movq	%r9, %rdi
	movq	%r9, %rbx
	callq	strdup
	movq	%rbx, %r9
	movq	%rax, 8(%r13)
	jmp	.LBB48_781
.LBB48_425:                             #   in Loop: Header=BB48_17 Depth=1
	movq	%rdi, %rbp
	movq	16(%r13), %rdi
	testq	%rdi, %rdi
	je	.LBB48_427
# %bb.426:                              #   in Loop: Header=BB48_17 Depth=1
	movq	%r9, %rbx
	callq	myFree
	movq	%rbx, %r9
	movq	$0, 16(%r13)
.LBB48_427:                             #   in Loop: Header=BB48_17 Depth=1
	testq	%r9, %r9
	je	.LBB48_722
# %bb.428:                              #   in Loop: Header=BB48_17 Depth=1
	movq	%r9, %rdi
	movq	%r9, %rbx
	callq	strdup
	movq	%rbx, %r9
	movq	%rax, 16(%r13)
	jmp	.LBB48_781
.LBB48_429:                             #   in Loop: Header=BB48_17 Depth=1
	movabsq	$9223372036854775, %rdx # imm = 0x20C49BA5E353F7
	movq	%rdi, %rbp
	movq	352(%rsp), %rdi         # 8-byte Reload
	jmp	.LBB48_711
.LBB48_430:                             #   in Loop: Header=BB48_17 Depth=1
	movq	%rdi, %rbp
	movq	520(%r13), %rdi
	testq	%rdi, %rdi
	je	.LBB48_432
# %bb.431:                              #   in Loop: Header=BB48_17 Depth=1
	movq	%r9, %rbx
	callq	myFree
	movq	%rbx, %r9
	movq	$0, 520(%r13)
.LBB48_432:                             #   in Loop: Header=BB48_17 Depth=1
	testq	%r9, %r9
	je	.LBB48_722
# %bb.433:                              #   in Loop: Header=BB48_17 Depth=1
	movq	%r9, %rdi
	movq	%r9, %rbx
	callq	strdup
	movq	%rbx, %r9
	movq	%rax, 520(%r13)
	jmp	.LBB48_781
.LBB48_434:                             #   in Loop: Header=BB48_17 Depth=1
	movb	%dl, 90(%r13)
	jmp	.LBB48_782
.LBB48_435:                             #   in Loop: Header=BB48_17 Depth=1
	movb	%dl, 1217(%r13)
	jmp	.LBB48_782
.LBB48_436:                             #   in Loop: Header=BB48_17 Depth=1
	movq	%rdi, %rbp
	movq	24(%r12), %rdi
	testq	%rdi, %rdi
	je	.LBB48_438
# %bb.437:                              #   in Loop: Header=BB48_17 Depth=1
	movq	%r9, %rbx
	callq	myFree
	movq	%rbx, %r9
	movq	$0, 24(%r12)
.LBB48_438:                             #   in Loop: Header=BB48_17 Depth=1
	testq	%r9, %r9
	je	.LBB48_440
# %bb.439:                              #   in Loop: Header=BB48_17 Depth=1
	movq	%r9, %rdi
	movq	%r9, %rbx
	callq	strdup
	movq	%rbx, %r9
	movq	%rax, 24(%r12)
	testq	%rax, %rax
	je	.LBB48_709
.LBB48_440:                             #   in Loop: Header=BB48_17 Depth=1
	cmpl	$2, 44(%r12)
	jb	.LBB48_442
# %bb.441:                              #   in Loop: Header=BB48_17 Depth=1
	movl	$.L.str.2.106, %esi
	movq	%r12, %rdi
	xorl	%eax, %eax
	movq	%r9, %rbx
	callq	warnf
	movq	%rbx, %r9
.LBB48_442:                             #   in Loop: Header=BB48_17 Depth=1
	movl	$1, 44(%r12)
	jmp	.LBB48_317
.LBB48_443:                             #   in Loop: Header=BB48_17 Depth=1
	movq	%rdi, %rbp
	movq	24(%r12), %rdi
	testq	%rdi, %rdi
	je	.LBB48_445
# %bb.444:                              #   in Loop: Header=BB48_17 Depth=1
	movq	%r9, %rbx
	callq	myFree
	movq	%rbx, %r9
	movq	$0, 24(%r12)
.LBB48_445:                             #   in Loop: Header=BB48_17 Depth=1
	testq	%r9, %r9
	je	.LBB48_447
# %bb.446:                              #   in Loop: Header=BB48_17 Depth=1
	movq	%r9, %rdi
	movq	%r9, %rbx
	callq	strdup
	movq	%rbx, %r9
	movq	%rax, 24(%r12)
	testq	%rax, %rax
	je	.LBB48_709
.LBB48_447:                             #   in Loop: Header=BB48_17 Depth=1
	movl	$2, %eax
	movl	44(%r12), %ecx
	orl	%eax, %ecx
	cmpl	%eax, %ecx
	je	.LBB48_449
# %bb.448:                              #   in Loop: Header=BB48_17 Depth=1
	movl	$.L.str.3.107, %esi
	movq	%r12, %rdi
	xorl	%eax, %eax
	movq	%r9, %rbx
	callq	warnf
	movq	%rbx, %r9
.LBB48_449:                             #   in Loop: Header=BB48_17 Depth=1
	movl	$2, 44(%r12)
	jmp	.LBB48_317
.LBB48_450:                             #   in Loop: Header=BB48_17 Depth=1
	movq	%rdi, %r14
	leaq	64(%rsp), %rcx
	movl	$.L.str.4.108, %edx
	movq	%r12, %rdi
	movq	%r9, %rbx
	movq	%r9, %rsi
	callq	GetSizeParameter
	testl	%eax, %eax
	jne	.LBB48_840
# %bb.451:                              #   in Loop: Header=BB48_17 Depth=1
	movq	64(%rsp), %rax
	movq	%rax, 976(%r13)
	movq	%rax, 968(%r13)
	jmp	.LBB48_492
.LBB48_452:                             #   in Loop: Header=BB48_17 Depth=1
	testb	%dl, %dl
	je	.LBB48_454
# %bb.453:                              #   in Loop: Header=BB48_17 Depth=1
	movq	curlinfo(%rip), %rax
	testl	$75497480, 32(%rax)     # imm = 0x4800008
	je	.LBB48_841
.LBB48_454:                             #   in Loop: Header=BB48_17 Depth=1
	movb	%dl, 73(%r13)
	jmp	.LBB48_782
.LBB48_455:                             #   in Loop: Header=BB48_17 Depth=1
	movq	40(%rsp), %rcx          # 8-byte Reload
	movq	(%rcx), %rax
	testb	%dl, %dl
	je	.LBB48_787
# %bb.456:                              #   in Loop: Header=BB48_17 Depth=1
	orq	$2, %rax
	jmp	.LBB48_457
.LBB48_458:                             #   in Loop: Header=BB48_17 Depth=1
	testb	%dl, %dl
	je	.LBB48_788
# %bb.459:                              #   in Loop: Header=BB48_17 Depth=1
	movq	curlinfo(%rip), %rax
	testb	$1, 33(%rax)
	movq	40(%rsp), %rax          # 8-byte Reload
	je	.LBB48_841
# %bb.460:                              #   in Loop: Header=BB48_17 Depth=1
	orb	$4, (%rax)
	jmp	.LBB48_782
.LBB48_461:                             #   in Loop: Header=BB48_17 Depth=1
	testb	%dl, %dl
	je	.LBB48_789
# %bb.462:                              #   in Loop: Header=BB48_17 Depth=1
	movq	curlinfo(%rip), %rax
	testb	$16, 32(%rax)
	movq	40(%rsp), %rax          # 8-byte Reload
	je	.LBB48_841
# %bb.463:                              #   in Loop: Header=BB48_17 Depth=1
	orb	$8, (%rax)
	jmp	.LBB48_782
.LBB48_464:                             #   in Loop: Header=BB48_17 Depth=1
	movq	40(%rsp), %rcx          # 8-byte Reload
	movq	(%rcx), %rax
	testb	%dl, %dl
	je	.LBB48_790
# %bb.465:                              #   in Loop: Header=BB48_17 Depth=1
	orq	$1, %rax
	jmp	.LBB48_457
.LBB48_466:                             #   in Loop: Header=BB48_17 Depth=1
	testb	%dl, %dl
	je	.LBB48_782
# %bb.467:                              #   in Loop: Header=BB48_17 Depth=1
	movq	40(%rsp), %rax          # 8-byte Reload
	movq	$-17, (%rax)
	jmp	.LBB48_782
.LBB48_468:                             #   in Loop: Header=BB48_17 Depth=1
	movb	%dl, 796(%r13)
	jmp	.LBB48_782
.LBB48_469:                             #   in Loop: Header=BB48_17 Depth=1
	movb	%dl, 795(%r13)
	jmp	.LBB48_782
.LBB48_470:                             #   in Loop: Header=BB48_17 Depth=1
	movq	%rdi, %r15
	movq	368(%rsp), %rbx         # 8-byte Reload
	movq	%rbx, %rdi
	movq	%r9, %r14
	movq	%r9, %rsi
	callq	str2num
	testl	%eax, %eax
	jne	.LBB48_840
# %bb.471:                              #   in Loop: Header=BB48_17 Depth=1
	cmpq	$-1, (%rbx)
	movq	%r14, %r9
	movl	4(%rsp), %edx           # 4-byte Reload
	movb	8(%rsp), %sil           # 1-byte Reload
	movq	%r15, %rdi
	jge	.LBB48_782
	jmp	.LBB48_472
.LBB48_473:                             #   in Loop: Header=BB48_17 Depth=1
	movq	curlinfo(%rip), %rax
	testb	$16, 32(%rax)
	je	.LBB48_841
# %bb.474:                              #   in Loop: Header=BB48_17 Depth=1
	movb	%dl, 799(%r13)
	jmp	.LBB48_782
.LBB48_475:                             #   in Loop: Header=BB48_17 Depth=1
	movb	%dl, 736(%r13)
	jmp	.LBB48_782
.LBB48_476:                             #   in Loop: Header=BB48_17 Depth=1
	movq	%rdi, %rbp
	movl	$.L.str.5.109, %esi
	movq	%r9, %rdi
	movq	%r9, %rbx
	callq	strcmp
	testl	%eax, %eax
	je	.LBB48_791
# %bb.477:                              #   in Loop: Header=BB48_17 Depth=1
	movl	$.L.str.6.110, %esi
	movq	%rbx, %r14
	movq	%rbx, %rdi
	callq	fopen
	testq	%rax, %rax
	je	.LBB48_806
# %bb.478:                              #   in Loop: Header=BB48_17 Depth=1
	movq	%rax, %rbx
	cmpb	$0, 16(%r12)
	je	.LBB48_480
# %bb.479:                              #   in Loop: Header=BB48_17 Depth=1
	movq	8(%r12), %rdi
	callq	fclose
.LBB48_480:                             #   in Loop: Header=BB48_17 Depth=1
	movq	%rbx, 8(%r12)
	movb	$1, 16(%r12)
	jmp	.LBB48_316
.LBB48_481:                             #   in Loop: Header=BB48_17 Depth=1
	movq	%rdi, %rbp
	movq	224(%r13), %rdi
	testq	%rdi, %rdi
	je	.LBB48_483
# %bb.482:                              #   in Loop: Header=BB48_17 Depth=1
	movq	%r9, %rbx
	callq	myFree
	movq	%rbx, %r9
	movq	$0, 224(%r13)
.LBB48_483:                             #   in Loop: Header=BB48_17 Depth=1
	testq	%r9, %r9
	je	.LBB48_722
# %bb.484:                              #   in Loop: Header=BB48_17 Depth=1
	movq	%r9, %rdi
	movq	%r9, %rbx
	callq	strdup
	movq	%rbx, %r9
	movq	%rax, 224(%r13)
	jmp	.LBB48_781
.LBB48_485:                             #   in Loop: Header=BB48_17 Depth=1
	movq	curlinfo(%rip), %rax
	testb	$1, 33(%rax)
	je	.LBB48_841
# %bb.486:                              #   in Loop: Header=BB48_17 Depth=1
	movq	%rdi, %rbp
	movq	760(%r13), %rdi
	testq	%rdi, %rdi
	je	.LBB48_488
# %bb.487:                              #   in Loop: Header=BB48_17 Depth=1
	movq	%r9, %rbx
	callq	myFree
	movq	%rbx, %r9
	movq	$0, 760(%r13)
.LBB48_488:                             #   in Loop: Header=BB48_17 Depth=1
	testq	%r9, %r9
	je	.LBB48_722
# %bb.489:                              #   in Loop: Header=BB48_17 Depth=1
	movq	%r9, %rdi
	movq	%r9, %rbx
	callq	strdup
	movq	%rbx, %r9
	movq	%rax, 760(%r13)
	jmp	.LBB48_781
.LBB48_490:                             #   in Loop: Header=BB48_17 Depth=1
	movq	%rdi, %r14
	leaq	64(%rsp), %rcx
	movl	$.L.str.8.112, %edx
	movq	%r12, %rdi
	movq	%r9, %rbx
	movq	%r9, %rsi
	callq	GetSizeParameter
	testl	%eax, %eax
	jne	.LBB48_840
# %bb.491:                              #   in Loop: Header=BB48_17 Depth=1
	movq	64(%rsp), %rax
	movq	%rax, 192(%r13)
	jmp	.LBB48_492
.LBB48_493:                             #   in Loop: Header=BB48_17 Depth=1
	movb	%dl, 91(%r13)
	jmp	.LBB48_782
.LBB48_494:                             #   in Loop: Header=BB48_17 Depth=1
	movb	%dl, 1128(%r13)
	jmp	.LBB48_782
.LBB48_495:                             #   in Loop: Header=BB48_17 Depth=1
	movq	%rdi, %r14
	movq	152(%rsp), %rbp         # 8-byte Reload
	jmp	.LBB48_563
.LBB48_496:                             #   in Loop: Header=BB48_17 Depth=1
	movq	%rdi, %rbp
	movq	528(%r13), %rdi
	testq	%rdi, %rdi
	je	.LBB48_498
# %bb.497:                              #   in Loop: Header=BB48_17 Depth=1
	movq	%r9, %rbx
	callq	myFree
	movq	%rbx, %r9
	movq	$0, 528(%r13)
.LBB48_498:                             #   in Loop: Header=BB48_17 Depth=1
	testq	%r9, %r9
	je	.LBB48_722
# %bb.499:                              #   in Loop: Header=BB48_17 Depth=1
	movq	%r9, %rdi
	movq	%r9, %rbx
	callq	strdup
	movq	%rbx, %r9
	movq	%rax, 528(%r13)
	jmp	.LBB48_781
.LBB48_500:                             #   in Loop: Header=BB48_17 Depth=1
	movq	%rdi, %rbp
	movq	624(%r13), %rdi
	testq	%rdi, %rdi
	je	.LBB48_502
# %bb.501:                              #   in Loop: Header=BB48_17 Depth=1
	movq	%r9, %rbx
	callq	myFree
	movq	%rbx, %r9
	movq	$0, 624(%r13)
.LBB48_502:                             #   in Loop: Header=BB48_17 Depth=1
	testq	%r9, %r9
	je	.LBB48_722
# %bb.503:                              #   in Loop: Header=BB48_17 Depth=1
	movq	%r9, %rdi
	movq	%r9, %rbx
	callq	strdup
	movq	%rbx, %r9
	movq	%rax, 624(%r13)
	jmp	.LBB48_781
.LBB48_504:                             #   in Loop: Header=BB48_17 Depth=1
	movq	curlinfo(%rip), %rax
	testb	$4, 32(%rax)
	je	.LBB48_782
# %bb.505:                              #   in Loop: Header=BB48_17 Depth=1
	movb	%dl, 1145(%r13)
	jmp	.LBB48_782
.LBB48_506:                             #   in Loop: Header=BB48_17 Depth=1
	movq	%rdi, %rbp
	movq	320(%r13), %rdi
	testq	%rdi, %rdi
	je	.LBB48_508
# %bb.507:                              #   in Loop: Header=BB48_17 Depth=1
	movq	%r9, %rbx
	callq	myFree
	movq	%rbx, %r9
	movq	$0, 320(%r13)
.LBB48_508:                             #   in Loop: Header=BB48_17 Depth=1
	testq	%r9, %r9
	je	.LBB48_722
# %bb.509:                              #   in Loop: Header=BB48_17 Depth=1
	movq	%r9, %rdi
	movq	%r9, %rbx
	callq	strdup
	movq	%rbx, %r9
	movq	%rax, 320(%r13)
	jmp	.LBB48_781
.LBB48_510:                             #   in Loop: Header=BB48_17 Depth=1
	movq	%rdi, %rbp
	movq	592(%r13), %rdi
	testq	%rdi, %rdi
	je	.LBB48_512
# %bb.511:                              #   in Loop: Header=BB48_17 Depth=1
	movq	%r9, %rbx
	callq	myFree
	movq	%rbx, %r9
	movq	$0, 592(%r13)
.LBB48_512:                             #   in Loop: Header=BB48_17 Depth=1
	testq	%r9, %r9
	je	.LBB48_722
# %bb.513:                              #   in Loop: Header=BB48_17 Depth=1
	movq	%r9, %rdi
	movq	%r9, %rbx
	callq	strdup
	movq	%rbx, %r9
	movq	%rax, 592(%r13)
	jmp	.LBB48_781
.LBB48_514:                             #   in Loop: Header=BB48_17 Depth=1
	movq	%rdi, %rbp
	movq	608(%r13), %rdi
	testq	%rdi, %rdi
	je	.LBB48_516
# %bb.515:                              #   in Loop: Header=BB48_17 Depth=1
	movq	%r9, %rbx
	callq	myFree
	movq	%rbx, %r9
	movq	$0, 608(%r13)
.LBB48_516:                             #   in Loop: Header=BB48_17 Depth=1
	testq	%r9, %r9
	je	.LBB48_722
# %bb.517:                              #   in Loop: Header=BB48_17 Depth=1
	movq	%r9, %rdi
	movq	%r9, %rbx
	callq	strdup
	movq	%rbx, %r9
	movq	%rax, 608(%r13)
	jmp	.LBB48_781
.LBB48_518:                             #   in Loop: Header=BB48_17 Depth=1
	movb	%dl, 791(%r13)
	jmp	.LBB48_782
.LBB48_519:                             #   in Loop: Header=BB48_17 Depth=1
	movq	$1, 856(%r13)
	jmp	.LBB48_782
.LBB48_520:                             #   in Loop: Header=BB48_17 Depth=1
	movq	1008(%r13), %rax
	testb	%dl, %dl
	je	.LBB48_792
# %bb.521:                              #   in Loop: Header=BB48_17 Depth=1
	orq	$1, %rax
	jmp	.LBB48_522
.LBB48_523:                             #   in Loop: Header=BB48_17 Depth=1
	movq	1008(%r13), %rax
	testb	%dl, %dl
	je	.LBB48_793
# %bb.524:                              #   in Loop: Header=BB48_17 Depth=1
	orq	$4, %rax
	jmp	.LBB48_522
.LBB48_525:                             #   in Loop: Header=BB48_17 Depth=1
	movq	%rdi, %rbp
	movq	720(%r13), %rdi
	testq	%rdi, %rdi
	je	.LBB48_527
# %bb.526:                              #   in Loop: Header=BB48_17 Depth=1
	movq	%r9, %rbx
	callq	myFree
	movq	%rbx, %r9
	movq	$0, 720(%r13)
.LBB48_527:                             #   in Loop: Header=BB48_17 Depth=1
	testq	%r9, %r9
	je	.LBB48_722
# %bb.528:                              #   in Loop: Header=BB48_17 Depth=1
	movq	%r9, %rdi
	movq	%r9, %rbx
	callq	strdup
	movq	%rbx, %r9
	movq	%rax, 720(%r13)
	jmp	.LBB48_781
.LBB48_529:                             #   in Loop: Header=BB48_17 Depth=1
	movq	%rdi, %rbp
	movq	728(%r13), %rdi
	testq	%rdi, %rdi
	je	.LBB48_531
# %bb.530:                              #   in Loop: Header=BB48_17 Depth=1
	movq	%r9, %rbx
	callq	myFree
	movq	%rbx, %r9
	movq	$0, 728(%r13)
.LBB48_531:                             #   in Loop: Header=BB48_17 Depth=1
	testq	%r9, %r9
	je	.LBB48_722
# %bb.532:                              #   in Loop: Header=BB48_17 Depth=1
	movq	%r9, %rdi
	movq	%r9, %rbx
	callq	strdup
	movq	%rbx, %r9
	movq	%rax, 728(%r13)
	jmp	.LBB48_781
.LBB48_533:                             #   in Loop: Header=BB48_17 Depth=1
	movq	%rdi, %rbp
	movq	752(%r13), %rdi
	testq	%rdi, %rdi
	je	.LBB48_535
# %bb.534:                              #   in Loop: Header=BB48_17 Depth=1
	movq	%r9, %rbx
	callq	myFree
	movq	%rbx, %r9
	movq	$0, 752(%r13)
.LBB48_535:                             #   in Loop: Header=BB48_17 Depth=1
	testq	%r9, %r9
	je	.LBB48_722
# %bb.536:                              #   in Loop: Header=BB48_17 Depth=1
	movq	%r9, %rdi
	movq	%r9, %rbx
	callq	strdup
	movq	%rbx, %r9
	movq	%rax, 752(%r13)
	jmp	.LBB48_781
.LBB48_537:                             #   in Loop: Header=BB48_17 Depth=1
	movq	curlinfo(%rip), %rax
	testb	$4, 32(%rax)
	je	.LBB48_782
# %bb.538:                              #   in Loop: Header=BB48_17 Depth=1
	movb	%dl, 1150(%r13)
	jmp	.LBB48_782
.LBB48_539:                             #   in Loop: Header=BB48_17 Depth=1
	movq	%rdi, %rbp
	movq	640(%r13), %rdi
	testq	%rdi, %rdi
	je	.LBB48_541
# %bb.540:                              #   in Loop: Header=BB48_17 Depth=1
	movq	%r9, %rbx
	callq	myFree
	movq	%rbx, %r9
	movq	$0, 640(%r13)
.LBB48_541:                             #   in Loop: Header=BB48_17 Depth=1
	testq	%r9, %r9
	je	.LBB48_722
# %bb.542:                              #   in Loop: Header=BB48_17 Depth=1
	movq	%r9, %rdi
	movq	%r9, %rbx
	callq	strdup
	movq	%rbx, %r9
	movq	%rax, 640(%r13)
	jmp	.LBB48_781
.LBB48_543:                             #   in Loop: Header=BB48_17 Depth=1
	movb	$1, 794(%r13)
	jmp	.LBB48_782
.LBB48_544:                             #   in Loop: Header=BB48_17 Depth=1
	movq	curlinfo(%rip), %rax
	testb	$4, 32(%rax)
	je	.LBB48_782
# %bb.545:                              #   in Loop: Header=BB48_17 Depth=1
	movb	$1, 1147(%r13)
	jmp	.LBB48_782
.LBB48_546:                             #   in Loop: Header=BB48_17 Depth=1
	movq	%rdi, %rbp
	movq	584(%r13), %rdi
	testq	%rdi, %rdi
	je	.LBB48_548
# %bb.547:                              #   in Loop: Header=BB48_17 Depth=1
	movq	%r9, %rbx
	callq	myFree
	movq	%rbx, %r9
	movq	$0, 584(%r13)
.LBB48_548:                             #   in Loop: Header=BB48_17 Depth=1
	testq	%r9, %r9
	je	.LBB48_722
# %bb.549:                              #   in Loop: Header=BB48_17 Depth=1
	movq	%r9, %rdi
	movq	%r9, %rbx
	callq	strdup
	movq	%rbx, %r9
	movq	%rax, 584(%r13)
	jmp	.LBB48_781
.LBB48_550:                             #   in Loop: Header=BB48_17 Depth=1
	movq	%rdi, %rbp
	movq	568(%r13), %rdi
	testq	%rdi, %rdi
	je	.LBB48_552
# %bb.551:                              #   in Loop: Header=BB48_17 Depth=1
	movq	%r9, %rbx
	callq	myFree
	movq	%rbx, %r9
	movq	$0, 568(%r13)
.LBB48_552:                             #   in Loop: Header=BB48_17 Depth=1
	testq	%r9, %r9
	je	.LBB48_722
# %bb.553:                              #   in Loop: Header=BB48_17 Depth=1
	movq	%r9, %rdi
	movq	%r9, %rbx
	callq	strdup
	movq	%rbx, %r9
	movq	%rax, 568(%r13)
	jmp	.LBB48_781
.LBB48_554:                             #   in Loop: Header=BB48_17 Depth=1
	movq	%rdi, %rbp
	movq	648(%r13), %rdi
	testq	%rdi, %rdi
	je	.LBB48_556
# %bb.555:                              #   in Loop: Header=BB48_17 Depth=1
	movq	%r9, %rbx
	callq	myFree
	movq	%rbx, %r9
	movq	$0, 648(%r13)
.LBB48_556:                             #   in Loop: Header=BB48_17 Depth=1
	testq	%r9, %r9
	je	.LBB48_722
# %bb.557:                              #   in Loop: Header=BB48_17 Depth=1
	movq	%r9, %rdi
	movq	%r9, %rbx
	callq	strdup
	movq	%rbx, %r9
	movq	%rax, 648(%r13)
	jmp	.LBB48_781
.LBB48_558:                             #   in Loop: Header=BB48_17 Depth=1
	movq	%rdi, %rbp
	movq	664(%r13), %rdi
	testq	%rdi, %rdi
	je	.LBB48_560
# %bb.559:                              #   in Loop: Header=BB48_17 Depth=1
	movq	%r9, %rbx
	callq	myFree
	movq	%rbx, %r9
	movq	$0, 664(%r13)
.LBB48_560:                             #   in Loop: Header=BB48_17 Depth=1
	testq	%r9, %r9
	je	.LBB48_722
# %bb.561:                              #   in Loop: Header=BB48_17 Depth=1
	movq	%r9, %rdi
	movq	%r9, %rbx
	callq	strdup
	movq	%rbx, %r9
	movq	%rax, 664(%r13)
	jmp	.LBB48_781
.LBB48_562:                             #   in Loop: Header=BB48_17 Depth=1
	movq	%rdi, %r14
	movq	144(%rsp), %rbp         # 8-byte Reload
.LBB48_563:                             #   in Loop: Header=BB48_17 Depth=1
	movq	(%rbp), %rdi
	testq	%rdi, %rdi
	je	.LBB48_565
# %bb.564:                              #   in Loop: Header=BB48_17 Depth=1
	movq	%r9, %rbx
	callq	myFree
	movq	%rbx, %r9
	movq	$0, (%rbp)
.LBB48_565:                             #   in Loop: Header=BB48_17 Depth=1
	testq	%r9, %r9
	je	.LBB48_567
# %bb.566:                              #   in Loop: Header=BB48_17 Depth=1
	movq	%r9, %rdi
	movq	%r9, %rbx
	callq	strdup
	movq	%rbx, %r9
	movq	%rax, (%rbp)
	testq	%rax, %rax
	je	.LBB48_709
.LBB48_567:                             #   in Loop: Header=BB48_17 Depth=1
	movq	%r9, %rdi
	movq	%r9, %rbx
	callq	cleanarg
.LBB48_492:                             #   in Loop: Header=BB48_17 Depth=1
	movq	%rbx, %r9
	jmp	.LBB48_816
.LBB48_568:                             #   in Loop: Header=BB48_17 Depth=1
	movq	%rdi, %rbp
	movq	712(%r13), %rdi
	testq	%rdi, %rdi
	je	.LBB48_570
# %bb.569:                              #   in Loop: Header=BB48_17 Depth=1
	movq	%r9, %rbx
	callq	myFree
	movq	%rbx, %r9
	movq	$0, 712(%r13)
.LBB48_570:                             #   in Loop: Header=BB48_17 Depth=1
	testq	%r9, %r9
	je	.LBB48_722
# %bb.571:                              #   in Loop: Header=BB48_17 Depth=1
	movq	%r9, %rbx
	movq	%r9, %rdi
	callq	strdup
	movq	%rax, 712(%r13)
	testq	%rax, %rax
	je	.LBB48_709
# %bb.572:                              #   in Loop: Header=BB48_17 Depth=1
	movl	$.L.str.19.123, %esi
	movq	%rax, %rdi
	callq	curl_strequal
	testl	%eax, %eax
	movq	%rbx, %r9
	movl	4(%rsp), %edx           # 4-byte Reload
	movb	8(%rsp), %sil           # 1-byte Reload
	movq	%rbp, %rdi
	je	.LBB48_782
	jmp	.LBB48_573
.LBB48_574:                             #   in Loop: Header=BB48_17 Depth=1
	movq	%rdi, %rbp
	movq	600(%r13), %rdi
	testq	%rdi, %rdi
	je	.LBB48_576
# %bb.575:                              #   in Loop: Header=BB48_17 Depth=1
	movq	%r9, %rbx
	callq	myFree
	movq	%rbx, %r9
	movq	$0, 600(%r13)
.LBB48_576:                             #   in Loop: Header=BB48_17 Depth=1
	testq	%r9, %r9
	je	.LBB48_722
# %bb.577:                              #   in Loop: Header=BB48_17 Depth=1
	movq	%r9, %rdi
	movq	%r9, %rbx
	callq	strdup
	movq	%rbx, %r9
	movq	%rax, 600(%r13)
	jmp	.LBB48_781
.LBB48_578:                             #   in Loop: Header=BB48_17 Depth=1
	movq	%rdi, %rbp
	movq	696(%r13), %rdi
	testq	%rdi, %rdi
	je	.LBB48_580
# %bb.579:                              #   in Loop: Header=BB48_17 Depth=1
	movq	%r9, %rbx
	callq	myFree
	movq	%rbx, %r9
	movq	$0, 696(%r13)
.LBB48_580:                             #   in Loop: Header=BB48_17 Depth=1
	testq	%r9, %r9
	je	.LBB48_722
# %bb.581:                              #   in Loop: Header=BB48_17 Depth=1
	movq	%r9, %rdi
	movq	%r9, %rbx
	callq	strdup
	movq	%rbx, %r9
	movq	%rax, 696(%r13)
	jmp	.LBB48_781
.LBB48_582:                             #   in Loop: Header=BB48_17 Depth=1
	movq	%rdi, %r14
	movq	704(%r13), %rdi
	testq	%rdi, %rdi
	je	.LBB48_584
# %bb.583:                              #   in Loop: Header=BB48_17 Depth=1
	movq	%r9, %rbx
	callq	myFree
	movq	%rbx, %r9
	movq	$0, 704(%r13)
.LBB48_584:                             #   in Loop: Header=BB48_17 Depth=1
	movl	$4, %ebp
	testq	%r9, %r9
	je	.LBB48_10
# %bb.585:                              #   in Loop: Header=BB48_17 Depth=1
	movq	%r9, %rbx
	movq	%r9, %rdi
	callq	strdup
	movq	%rax, 704(%r13)
	testq	%rax, %rax
	je	.LBB48_709
# %bb.586:                              #   in Loop: Header=BB48_17 Depth=1
	movq	%rax, %rdi
	callq	strlen
	cmpq	$32, %rax
	jmp	.LBB48_243
.LBB48_587:                             #   in Loop: Header=BB48_17 Depth=1
	movq	%rdi, %rbp
	movq	616(%r13), %rdi
	testq	%rdi, %rdi
	je	.LBB48_589
# %bb.588:                              #   in Loop: Header=BB48_17 Depth=1
	movq	%r9, %rbx
	callq	myFree
	movq	%rbx, %r9
	movq	$0, 616(%r13)
.LBB48_589:                             #   in Loop: Header=BB48_17 Depth=1
	testq	%r9, %r9
	je	.LBB48_722
# %bb.590:                              #   in Loop: Header=BB48_17 Depth=1
	movq	%r9, %rdi
	movq	%r9, %rbx
	callq	strdup
	movq	%rbx, %r9
	movq	%rax, 616(%r13)
	jmp	.LBB48_781
.LBB48_591:                             #   in Loop: Header=BB48_17 Depth=1
	movq	curlinfo(%rip), %rax
	testb	$64, 33(%rax)
	je	.LBB48_841
# %bb.592:                              #   in Loop: Header=BB48_17 Depth=1
	movq	%rdi, %rbp
	movq	328(%r13), %rdi
	testq	%rdi, %rdi
	je	.LBB48_594
# %bb.593:                              #   in Loop: Header=BB48_17 Depth=1
	movq	%r9, %rbx
	callq	myFree
	movq	%rbx, %r9
	movq	$0, 328(%r13)
.LBB48_594:                             #   in Loop: Header=BB48_17 Depth=1
	testq	%r9, %r9
	je	.LBB48_722
# %bb.595:                              #   in Loop: Header=BB48_17 Depth=1
	movq	%r9, %rdi
	movq	%r9, %rbx
	callq	strdup
	movq	%rbx, %r9
	movq	%rax, 328(%r13)
	jmp	.LBB48_781
.LBB48_596:                             #   in Loop: Header=BB48_17 Depth=1
	movq	curlinfo(%rip), %rax
	testb	$64, 33(%rax)
	je	.LBB48_841
# %bb.597:                              #   in Loop: Header=BB48_17 Depth=1
	movq	%rdi, %rbp
	movq	336(%r13), %rdi
	testq	%rdi, %rdi
	je	.LBB48_599
# %bb.598:                              #   in Loop: Header=BB48_17 Depth=1
	movq	%r9, %rbx
	callq	myFree
	movq	%rbx, %r9
	movq	$0, 336(%r13)
.LBB48_599:                             #   in Loop: Header=BB48_17 Depth=1
	testq	%r9, %r9
	je	.LBB48_722
# %bb.600:                              #   in Loop: Header=BB48_17 Depth=1
	movq	%r9, %rdi
	movq	%r9, %rbx
	callq	strdup
	movq	%rbx, %r9
	movq	%rax, 336(%r13)
	jmp	.LBB48_781
.LBB48_601:                             #   in Loop: Header=BB48_17 Depth=1
	movq	curlinfo(%rip), %rax
	movl	$12, %ebp
	testb	$64, 33(%rax)
	je	.LBB48_10
# %bb.602:                              #   in Loop: Header=BB48_17 Depth=1
	movq	%rdi, %r14
	movq	344(%r13), %rdi
	testq	%rdi, %rdi
	je	.LBB48_604
# %bb.603:                              #   in Loop: Header=BB48_17 Depth=1
	movq	%r9, %rbx
	callq	myFree
	movq	%rbx, %r9
	movq	$0, 344(%r13)
.LBB48_604:                             #   in Loop: Header=BB48_17 Depth=1
	testq	%r9, %r9
	je	.LBB48_645
# %bb.605:                              #   in Loop: Header=BB48_17 Depth=1
	movq	%r9, %rbx
	movq	%r9, %rdi
	callq	strdup
	movq	%rax, 344(%r13)
	jmp	.LBB48_634
.LBB48_606:                             #   in Loop: Header=BB48_17 Depth=1
	movq	curlinfo(%rip), %rax
	testb	$4, 32(%rax)
	je	.LBB48_782
# %bb.607:                              #   in Loop: Header=BB48_17 Depth=1
	movb	%dl, 1144(%r13)
	jmp	.LBB48_782
.LBB48_608:                             #   in Loop: Header=BB48_17 Depth=1
	movq	curlinfo(%rip), %rax
	testb	$4, 32(%rax)
	je	.LBB48_782
# %bb.609:                              #   in Loop: Header=BB48_17 Depth=1
	movb	%dl, 1149(%r13)
	jmp	.LBB48_782
.LBB48_610:                             #   in Loop: Header=BB48_17 Depth=1
	movq	%rdi, %rbp
	movq	632(%r13), %rdi
	testq	%rdi, %rdi
	je	.LBB48_612
# %bb.611:                              #   in Loop: Header=BB48_17 Depth=1
	movq	%r9, %rbx
	callq	myFree
	movq	%rbx, %r9
	movq	$0, 632(%r13)
.LBB48_612:                             #   in Loop: Header=BB48_17 Depth=1
	testq	%r9, %r9
	je	.LBB48_722
# %bb.613:                              #   in Loop: Header=BB48_17 Depth=1
	movq	%r9, %rdi
	movq	%r9, %rbx
	callq	strdup
	movq	%rbx, %r9
	movq	%rax, 632(%r13)
	jmp	.LBB48_781
.LBB48_614:                             #   in Loop: Header=BB48_17 Depth=1
	movb	$1, 793(%r13)
	jmp	.LBB48_782
.LBB48_615:                             #   in Loop: Header=BB48_17 Depth=1
	movb	$1, 1177(%r13)
	jmp	.LBB48_782
.LBB48_616:                             #   in Loop: Header=BB48_17 Depth=1
	movq	curlinfo(%rip), %rax
	testb	$4, 32(%rax)
	je	.LBB48_782
# %bb.617:                              #   in Loop: Header=BB48_17 Depth=1
	movb	$1, 1146(%r13)
	jmp	.LBB48_782
.LBB48_618:                             #   in Loop: Header=BB48_17 Depth=1
	movb	$1, 1033(%r13)
	jmp	.LBB48_782
.LBB48_619:                             #   in Loop: Header=BB48_17 Depth=1
	movq	curlinfo(%rip), %rax
	testb	$64, 33(%rax)
	je	.LBB48_841
# %bb.620:                              #   in Loop: Header=BB48_17 Depth=1
	movq	%rdi, %rbp
	movq	352(%r13), %rdi
	testq	%rdi, %rdi
	je	.LBB48_622
# %bb.621:                              #   in Loop: Header=BB48_17 Depth=1
	movq	%r9, %rbx
	callq	myFree
	movq	%rbx, %r9
	movq	$0, 352(%r13)
.LBB48_622:                             #   in Loop: Header=BB48_17 Depth=1
	testq	%r9, %r9
	je	.LBB48_722
# %bb.623:                              #   in Loop: Header=BB48_17 Depth=1
	movq	%r9, %rdi
	movq	%r9, %rbx
	callq	strdup
	movq	%rbx, %r9
	movq	%rax, 352(%r13)
	jmp	.LBB48_781
.LBB48_624:                             #   in Loop: Header=BB48_17 Depth=1
	movq	curlinfo(%rip), %rax
	testb	$64, 33(%rax)
	je	.LBB48_841
# %bb.625:                              #   in Loop: Header=BB48_17 Depth=1
	movq	%rdi, %rbp
	movq	360(%r13), %rdi
	testq	%rdi, %rdi
	je	.LBB48_627
# %bb.626:                              #   in Loop: Header=BB48_17 Depth=1
	movq	%r9, %rbx
	callq	myFree
	movq	%rbx, %r9
	movq	$0, 360(%r13)
.LBB48_627:                             #   in Loop: Header=BB48_17 Depth=1
	testq	%r9, %r9
	je	.LBB48_722
# %bb.628:                              #   in Loop: Header=BB48_17 Depth=1
	movq	%r9, %rdi
	movq	%r9, %rbx
	callq	strdup
	movq	%rbx, %r9
	movq	%rax, 360(%r13)
	jmp	.LBB48_781
.LBB48_629:                             #   in Loop: Header=BB48_17 Depth=1
	movq	curlinfo(%rip), %rax
	movl	$12, %ebp
	testb	$64, 33(%rax)
	je	.LBB48_10
# %bb.630:                              #   in Loop: Header=BB48_17 Depth=1
	movq	%rdi, %r14
	movq	368(%r13), %rdi
	testq	%rdi, %rdi
	je	.LBB48_632
# %bb.631:                              #   in Loop: Header=BB48_17 Depth=1
	movq	%r9, %rbx
	callq	myFree
	movq	%rbx, %r9
	movq	$0, 368(%r13)
.LBB48_632:                             #   in Loop: Header=BB48_17 Depth=1
	testq	%r9, %r9
	je	.LBB48_645
# %bb.633:                              #   in Loop: Header=BB48_17 Depth=1
	movq	%r9, %rbx
	movq	%r9, %rdi
	callq	strdup
	movq	%rax, 368(%r13)
.LBB48_634:                             #   in Loop: Header=BB48_17 Depth=1
	testq	%rax, %rax
	jne	.LBB48_646
	jmp	.LBB48_709
.LBB48_635:                             #   in Loop: Header=BB48_17 Depth=1
	movq	%rdi, %rbp
	movq	%r9, %rdi
	movq	344(%rsp), %rsi         # 8-byte Reload
	movq	152(%rsp), %rdx         # 8-byte Reload
.LBB48_636:                             #   in Loop: Header=BB48_17 Depth=1
	movq	%r9, %rbx
	callq	GetFileAndPassword
	jmp	.LBB48_60
.LBB48_637:                             #   in Loop: Header=BB48_17 Depth=1
	movq	%rdi, %rbp
	movq	576(%r13), %rdi
	testq	%rdi, %rdi
	je	.LBB48_639
# %bb.638:                              #   in Loop: Header=BB48_17 Depth=1
	movq	%r9, %rbx
	callq	myFree
	movq	%rbx, %r9
	movq	$0, 576(%r13)
.LBB48_639:                             #   in Loop: Header=BB48_17 Depth=1
	testq	%r9, %r9
	je	.LBB48_722
# %bb.640:                              #   in Loop: Header=BB48_17 Depth=1
	movq	%r9, %rdi
	movq	%r9, %rbx
	callq	strdup
	movq	%rbx, %r9
	movq	%rax, 576(%r13)
	jmp	.LBB48_781
.LBB48_641:                             #   in Loop: Header=BB48_17 Depth=1
	movq	%rdi, %rbp
	movq	656(%r13), %rdi
	testq	%rdi, %rdi
	je	.LBB48_643
# %bb.642:                              #   in Loop: Header=BB48_17 Depth=1
	movq	%r9, %rbx
	callq	myFree
	movq	%rbx, %r9
	movq	$0, 656(%r13)
.LBB48_643:                             #   in Loop: Header=BB48_17 Depth=1
	testq	%r9, %r9
	je	.LBB48_722
# %bb.644:                              #   in Loop: Header=BB48_17 Depth=1
	movq	%r9, %rdi
	movq	%r9, %rbx
	callq	strdup
	movq	%rbx, %r9
	movq	%rax, 656(%r13)
	jmp	.LBB48_781
.LBB48_645:                             #   in Loop: Header=BB48_17 Depth=1
	movq	%r9, %rbx
	xorl	%eax, %eax
.LBB48_646:                             #   in Loop: Header=BB48_17 Depth=1
	movl	$.L.str.20.124, %esi
	movq	%rax, %rdi
	callq	curl_strequal
	testl	%eax, %eax
	movq	%rbx, %r9
	movl	4(%rsp), %edx           # 4-byte Reload
	movb	8(%rsp), %sil           # 1-byte Reload
	movq	%r14, %rdi
	jne	.LBB48_782
	jmp	.LBB48_10
.LBB48_647:                             #   in Loop: Header=BB48_17 Depth=1
	movb	%dl, 1107(%r13)
	jmp	.LBB48_782
.LBB48_648:                             #   in Loop: Header=BB48_17 Depth=1
	movb	%dl, 1108(%r13)
	jmp	.LBB48_782
.LBB48_649:                             #   in Loop: Header=BB48_17 Depth=1
	movb	23(%rsp), %al           # 1-byte Reload
	movb	%al, 1111(%r13)
	jmp	.LBB48_782
.LBB48_650:                             #   in Loop: Header=BB48_17 Depth=1
	movq	%rdi, %rbp
	movq	384(%r13), %rdi
	testq	%rdi, %rdi
	je	.LBB48_652
# %bb.651:                              #   in Loop: Header=BB48_17 Depth=1
	movq	%r9, %rbx
	callq	myFree
	movq	%rbx, %r9
	movq	$0, 384(%r13)
.LBB48_652:                             #   in Loop: Header=BB48_17 Depth=1
	testq	%r9, %r9
	je	.LBB48_654
# %bb.653:                              #   in Loop: Header=BB48_17 Depth=1
	movq	%r9, %rdi
	movq	%r9, %rbx
	callq	strdup
	movq	%rbx, %r9
	movq	%rax, 384(%r13)
	testq	%rax, %rax
	je	.LBB48_709
.LBB48_654:                             #   in Loop: Header=BB48_17 Depth=1
	movl	$7, 392(%r13)
	jmp	.LBB48_317
.LBB48_655:                             #   in Loop: Header=BB48_17 Depth=1
	movq	%rdi, %rbp
	movq	264(%rsp), %rdi         # 8-byte Reload
	jmp	.LBB48_739
.LBB48_656:                             #   in Loop: Header=BB48_17 Depth=1
	movb	%dl, 1109(%r13)
	jmp	.LBB48_782
.LBB48_657:                             #   in Loop: Header=BB48_17 Depth=1
	movq	%rdi, %rbp
	movq	400(%r13), %rdi
	testq	%rdi, %rdi
	je	.LBB48_659
# %bb.658:                              #   in Loop: Header=BB48_17 Depth=1
	movq	%r9, %rbx
	callq	myFree
	movq	%rbx, %r9
	movq	$0, 400(%r13)
.LBB48_659:                             #   in Loop: Header=BB48_17 Depth=1
	testq	%r9, %r9
	je	.LBB48_722
# %bb.660:                              #   in Loop: Header=BB48_17 Depth=1
	movq	%r9, %rdi
	movq	%r9, %rbx
	callq	strdup
	movq	%rbx, %r9
	movq	%rax, 400(%r13)
	jmp	.LBB48_781
.LBB48_661:                             #   in Loop: Header=BB48_17 Depth=1
	movq	%rdi, %rbp
	movq	440(%r13), %rdi
	testq	%rdi, %rdi
	je	.LBB48_663
# %bb.662:                              #   in Loop: Header=BB48_17 Depth=1
	movq	%r9, %rbx
	callq	myFree
	movq	%rbx, %r9
	movq	$0, 440(%r13)
.LBB48_663:                             #   in Loop: Header=BB48_17 Depth=1
	testq	%r9, %r9
	je	.LBB48_722
# %bb.664:                              #   in Loop: Header=BB48_17 Depth=1
	movq	%r9, %rdi
	movq	%r9, %rbx
	callq	strdup
	movq	%rbx, %r9
	movq	%rax, 440(%r13)
	jmp	.LBB48_781
.LBB48_665:                             #   in Loop: Header=BB48_17 Depth=1
	movq	120(%rsp), %rax         # 8-byte Reload
	movl	%eax, 1000(%r13)
	jmp	.LBB48_782
.LBB48_666:                             #   in Loop: Header=BB48_17 Depth=1
	movq	%rdi, %rbp
	movq	384(%r13), %rdi
	testq	%rdi, %rdi
	je	.LBB48_668
# %bb.667:                              #   in Loop: Header=BB48_17 Depth=1
	movq	%r9, %rbx
	callq	myFree
	movq	%rbx, %r9
	movq	$0, 384(%r13)
.LBB48_668:                             #   in Loop: Header=BB48_17 Depth=1
	testq	%r9, %r9
	je	.LBB48_670
# %bb.669:                              #   in Loop: Header=BB48_17 Depth=1
	movq	%r9, %rdi
	movq	%r9, %rbx
	callq	strdup
	movq	%rbx, %r9
	movq	%rax, 384(%r13)
	testq	%rax, %rax
	je	.LBB48_709
.LBB48_670:                             #   in Loop: Header=BB48_17 Depth=1
	movl	$1, 392(%r13)
	jmp	.LBB48_317
.LBB48_671:                             #   in Loop: Header=BB48_17 Depth=1
	movq	%rdi, %rbp
	movq	272(%rsp), %rdi         # 8-byte Reload
	jmp	.LBB48_739
.LBB48_672:                             #   in Loop: Header=BB48_17 Depth=1
	movq	%rdi, %rbp
	movq	408(%r13), %rdi
	testq	%rdi, %rdi
	je	.LBB48_674
# %bb.673:                              #   in Loop: Header=BB48_17 Depth=1
	movq	%r9, %rbx
	callq	myFree
	movq	%rbx, %r9
	movq	$0, 408(%r13)
.LBB48_674:                             #   in Loop: Header=BB48_17 Depth=1
	testq	%r9, %r9
	je	.LBB48_722
# %bb.675:                              #   in Loop: Header=BB48_17 Depth=1
	movq	%r9, %rdi
	movq	%r9, %rbx
	callq	strdup
	movq	%rbx, %r9
	movq	%rax, 408(%r13)
	jmp	.LBB48_781
.LBB48_676:                             #   in Loop: Header=BB48_17 Depth=1
	movq	%rdi, %rbp
	movq	280(%rsp), %rdi         # 8-byte Reload
	jmp	.LBB48_682
.LBB48_677:                             #   in Loop: Header=BB48_17 Depth=1
	movb	%dl, 92(%r13)
	jmp	.LBB48_782
.LBB48_678:                             #   in Loop: Header=BB48_17 Depth=1
	movb	$1, 104(%r13)
	movq	%rdi, %rbp
	movq	%r13, %rdi
	movq	288(%rsp), %rsi         # 8-byte Reload
	jmp	.LBB48_680
.LBB48_679:                             #   in Loop: Header=BB48_17 Depth=1
	movb	$1, 120(%r13)
	movq	%rdi, %rbp
	movq	%r13, %rdi
	movq	296(%rsp), %rsi         # 8-byte Reload
.LBB48_680:                             #   in Loop: Header=BB48_17 Depth=1
	movq	%r9, %rdx
	movq	%r9, %rbx
	callq	proto2num
	movq	%rbp, %rdi
	movb	8(%rsp), %sil           # 1-byte Reload
	movl	4(%rsp), %edx           # 4-byte Reload
	movq	%rbx, %r9
	testq	%rax, %rax
	je	.LBB48_782
	jmp	.LBB48_805
.LBB48_681:                             #   in Loop: Header=BB48_17 Depth=1
	movq	%rdi, %rbp
	movq	304(%rsp), %rdi         # 8-byte Reload
	jmp	.LBB48_682
.LBB48_683:                             #   in Loop: Header=BB48_17 Depth=1
	movq	%rdi, %rbp
	movq	%r13, %rdi
	movq	%r9, %rsi
	movq	%r9, %rbx
	callq	delegation
	movq	%rbp, %rdi
	movb	8(%rsp), %sil           # 1-byte Reload
	movl	4(%rsp), %edx           # 4-byte Reload
	movq	%rbx, %r9
	movq	%rax, 1136(%r13)
	jmp	.LBB48_782
.LBB48_684:                             #   in Loop: Header=BB48_17 Depth=1
	movq	%rdi, %rbp
	movq	424(%r13), %rdi
	testq	%rdi, %rdi
	je	.LBB48_686
# %bb.685:                              #   in Loop: Header=BB48_17 Depth=1
	movq	%r9, %rbx
	callq	myFree
	movq	%rbx, %r9
	movq	$0, 424(%r13)
.LBB48_686:                             #   in Loop: Header=BB48_17 Depth=1
	testq	%r9, %r9
	je	.LBB48_722
# %bb.687:                              #   in Loop: Header=BB48_17 Depth=1
	movq	%r9, %rdi
	movq	%r9, %rbx
	callq	strdup
	movq	%rbx, %r9
	movq	%rax, 424(%r13)
	jmp	.LBB48_781
.LBB48_688:                             #   in Loop: Header=BB48_17 Depth=1
	movb	%dl, 1110(%r13)
	jmp	.LBB48_782
.LBB48_689:                             #   in Loop: Header=BB48_17 Depth=1
	movb	%dl, 448(%r13)
	jmp	.LBB48_782
.LBB48_690:                             #   in Loop: Header=BB48_17 Depth=1
	movl	$.L.str.11.115, %esi
	jmp	.LBB48_59
.LBB48_691:                             #   in Loop: Header=BB48_17 Depth=1
	movq	%rdi, %rbp
	movb	$0, 1176(%r13)
	jmp	.LBB48_692
.LBB48_696:                             #   in Loop: Header=BB48_17 Depth=1
	movb	%dl, 1178(%r13)
	jmp	.LBB48_782
.LBB48_697:                             #   in Loop: Header=BB48_17 Depth=1
	movq	%rdi, %rbp
	movq	1016(%r13), %rdi
	testq	%rdi, %rdi
	je	.LBB48_699
# %bb.698:                              #   in Loop: Header=BB48_17 Depth=1
	movq	%r9, %rbx
	callq	myFree
	movq	%rbx, %r9
	movq	$0, 1016(%r13)
.LBB48_699:                             #   in Loop: Header=BB48_17 Depth=1
	testq	%r9, %r9
	je	.LBB48_722
# %bb.700:                              #   in Loop: Header=BB48_17 Depth=1
	movq	%r9, %rdi
	movq	%r9, %rbx
	callq	strdup
	movq	%rbx, %r9
	movq	%rax, 1016(%r13)
	jmp	.LBB48_781
.LBB48_701:                             #   in Loop: Header=BB48_17 Depth=1
	movq	%rdi, %rbp
	movq	1024(%r13), %rdi
	testq	%rdi, %rdi
	je	.LBB48_703
# %bb.702:                              #   in Loop: Header=BB48_17 Depth=1
	movq	%r9, %rbx
	callq	myFree
	movq	%rbx, %r9
	movq	$0, 1024(%r13)
.LBB48_703:                             #   in Loop: Header=BB48_17 Depth=1
	testq	%r9, %r9
	je	.LBB48_722
# %bb.704:                              #   in Loop: Header=BB48_17 Depth=1
	movq	%r9, %rdi
	movq	%r9, %rbx
	callq	strdup
	movq	%rbx, %r9
	movq	%rax, 1024(%r13)
	jmp	.LBB48_781
.LBB48_705:                             #   in Loop: Header=BB48_17 Depth=1
	movq	%rdi, %r14
	movq	128(%r13), %rdi
	testq	%rdi, %rdi
	je	.LBB48_707
# %bb.706:                              #   in Loop: Header=BB48_17 Depth=1
	movq	%r9, %rbx
	callq	myFree
	movq	%rbx, %r9
	movq	$0, 128(%r13)
.LBB48_707:                             #   in Loop: Header=BB48_17 Depth=1
	testq	%r9, %r9
	je	.LBB48_794
# %bb.708:                              #   in Loop: Header=BB48_17 Depth=1
	movq	%r9, %rbx
	movq	%r9, %rdi
	callq	strdup
	movq	%rax, 128(%r13)
	testq	%rax, %rax
	jne	.LBB48_795
	jmp	.LBB48_709
.LBB48_710:                             #   in Loop: Header=BB48_17 Depth=1
	movabsq	$9223372036854775, %rdx # imm = 0x20C49BA5E353F7
	movq	%rdi, %rbp
	movq	312(%rsp), %rdi         # 8-byte Reload
	jmp	.LBB48_711
.LBB48_713:                             #   in Loop: Header=BB48_17 Depth=1
	movb	%dl, 1104(%r13)
	jmp	.LBB48_782
.LBB48_714:                             #   in Loop: Header=BB48_17 Depth=1
	movq	%rdi, %rbp
	movq	384(%r13), %rdi
	testq	%rdi, %rdi
	je	.LBB48_716
# %bb.715:                              #   in Loop: Header=BB48_17 Depth=1
	movq	%r9, %rbx
	callq	myFree
	movq	%rbx, %r9
	movq	$0, 384(%r13)
.LBB48_716:                             #   in Loop: Header=BB48_17 Depth=1
	testq	%r9, %r9
	je	.LBB48_718
# %bb.717:                              #   in Loop: Header=BB48_17 Depth=1
	movq	%r9, %rdi
	movq	%r9, %rbx
	callq	strdup
	movq	%rbx, %r9
	movq	%rax, 384(%r13)
	testq	%rax, %rax
	je	.LBB48_709
.LBB48_718:                             #   in Loop: Header=BB48_17 Depth=1
	movl	$6, 392(%r13)
	jmp	.LBB48_317
.LBB48_719:                             #   in Loop: Header=BB48_17 Depth=1
	movq	%rdi, %rbp
	movq	320(%rsp), %rdi         # 8-byte Reload
	jmp	.LBB48_682
.LBB48_720:                             #   in Loop: Header=BB48_17 Depth=1
	movb	%dl, 1049(%r13)
	jmp	.LBB48_782
.LBB48_721:                             #   in Loop: Header=BB48_17 Depth=1
	movq	%rdi, %rbp
	movb	$1, 1176(%r13)
.LBB48_692:                             #   in Loop: Header=BB48_17 Depth=1
	movq	1168(%r13), %rdi
	testq	%rdi, %rdi
	je	.LBB48_694
# %bb.693:                              #   in Loop: Header=BB48_17 Depth=1
	movq	%r9, %rbx
	callq	myFree
	movq	%rbx, %r9
	movq	$0, 1168(%r13)
.LBB48_694:                             #   in Loop: Header=BB48_17 Depth=1
	testq	%r9, %r9
	je	.LBB48_722
# %bb.695:                              #   in Loop: Header=BB48_17 Depth=1
	movq	%r9, %rdi
	movq	%r9, %rbx
	callq	strdup
	movq	%rbx, %r9
	movq	%rax, 1168(%r13)
	jmp	.LBB48_781
.LBB48_723:                             #   in Loop: Header=BB48_17 Depth=1
	movq	%rdi, %rbp
	movq	328(%rsp), %rdi         # 8-byte Reload
	movq	%r9, %rsi
	movq	%r9, %rbx
	callq	str2tls_max
	jmp	.LBB48_712
.LBB48_724:                             #   in Loop: Header=BB48_17 Depth=1
	movb	%dl, 1192(%r13)
	jmp	.LBB48_782
.LBB48_725:                             #   in Loop: Header=BB48_17 Depth=1
	movb	%dl, 1200(%r13)
	jmp	.LBB48_782
.LBB48_726:                             #   in Loop: Header=BB48_17 Depth=1
	testb	%dl, %dl
	je	.LBB48_728
# %bb.727:                              #   in Loop: Header=BB48_17 Depth=1
	movq	curlinfo(%rip), %rax
	testb	$4, 32(%rax)
	je	.LBB48_841
.LBB48_728:                             #   in Loop: Header=BB48_17 Depth=1
	movb	%dl, 984(%r13)
	jmp	.LBB48_782
.LBB48_729:                             #   in Loop: Header=BB48_17 Depth=1
	movq	%rdi, %rbp
	movq	216(%r13), %rdi
	movq	%r9, %rbx
	callq	myFree
	movq	%rbp, %rdi
	movb	8(%rsp), %sil           # 1-byte Reload
	movl	4(%rsp), %edx           # 4-byte Reload
	movq	%rbx, %r9
	movq	$0, 216(%r13)
	jmp	.LBB48_782
.LBB48_730:                             #   in Loop: Header=BB48_17 Depth=1
	movq	%rdi, %rbp
	movq	384(%r13), %rdi
	testq	%rdi, %rdi
	je	.LBB48_732
# %bb.731:                              #   in Loop: Header=BB48_17 Depth=1
	movq	%r9, %rbx
	callq	myFree
	movq	%rbx, %r9
	movq	$0, 384(%r13)
.LBB48_732:                             #   in Loop: Header=BB48_17 Depth=1
	testq	%r9, %r9
	je	.LBB48_734
# %bb.733:                              #   in Loop: Header=BB48_17 Depth=1
	movq	%r9, %rdi
	movq	%r9, %rbx
	callq	strdup
	movq	%rbx, %r9
	movq	%rax, 384(%r13)
	testq	%rax, %rax
	je	.LBB48_709
.LBB48_734:                             #   in Loop: Header=BB48_17 Depth=1
	movl	$5, 392(%r13)
	jmp	.LBB48_317
.LBB48_735:                             #   in Loop: Header=BB48_17 Depth=1
	movb	%dl, 1032(%r13)
	jmp	.LBB48_782
.LBB48_736:                             #   in Loop: Header=BB48_17 Depth=1
	movb	%dl, 800(%r13)
	jmp	.LBB48_782
.LBB48_737:                             #   in Loop: Header=BB48_17 Depth=1
	movb	%dl, 801(%r13)
	jmp	.LBB48_782
.LBB48_738:                             #   in Loop: Header=BB48_17 Depth=1
	movq	%rdi, %rbp
	movq	224(%rsp), %rdi         # 8-byte Reload
.LBB48_739:                             #   in Loop: Header=BB48_17 Depth=1
	movq	%r9, %rsi
	movq	%r9, %rbx
	callq	str2unum
	jmp	.LBB48_712
.LBB48_740:                             #   in Loop: Header=BB48_17 Depth=1
	movabsq	$9223372036854775, %rdx # imm = 0x20C49BA5E353F7
	movq	%rdi, %rbp
	movq	232(%rsp), %rdi         # 8-byte Reload
	jmp	.LBB48_742
.LBB48_741:                             #   in Loop: Header=BB48_17 Depth=1
	movabsq	$9223372036854775, %rdx # imm = 0x20C49BA5E353F7
	movq	%rdi, %rbp
	movq	240(%rsp), %rdi         # 8-byte Reload
.LBB48_742:                             #   in Loop: Header=BB48_17 Depth=1
	movq	%r9, %rsi
	movq	%r9, %rbx
	callq	str2unummax
	jmp	.LBB48_712
.LBB48_743:                             #   in Loop: Header=BB48_17 Depth=1
	movb	$1, 987(%r13)
	movq	%rdi, %rbp
	movq	%r13, %rdi
	movq	%r9, %rsi
	movq	%r9, %rbx
	callq	ftpcccmethod
	movq	%rbp, %rdi
	movb	8(%rsp), %sil           # 1-byte Reload
	movl	4(%rsp), %edx           # 4-byte Reload
	movq	%rbx, %r9
	movl	%eax, 988(%r13)
	jmp	.LBB48_782
.LBB48_744:                             #   in Loop: Header=BB48_17 Depth=1
	movq	curlinfo(%rip), %rax
	testb	$1, 33(%rax)
	je	.LBB48_841
# %bb.745:                              #   in Loop: Header=BB48_17 Depth=1
	movb	%dl, 798(%r13)
	jmp	.LBB48_782
.LBB48_746:                             #   in Loop: Header=BB48_17 Depth=1
	movq	%rdi, %rbp
	movq	1072(%r13), %rdi
	testq	%rdi, %rdi
	je	.LBB48_748
# %bb.747:                              #   in Loop: Header=BB48_17 Depth=1
	movq	%r9, %rbx
	callq	myFree
	movq	%rbx, %r9
	movq	$0, 1072(%r13)
.LBB48_748:                             #   in Loop: Header=BB48_17 Depth=1
	testq	%r9, %r9
	je	.LBB48_722
# %bb.749:                              #   in Loop: Header=BB48_17 Depth=1
	movq	%r9, %rdi
	movq	%r9, %rbx
	callq	strdup
	movq	%rbx, %r9
	movq	%rax, 1072(%r13)
	jmp	.LBB48_781
.LBB48_750:                             #   in Loop: Header=BB48_17 Depth=1
	movb	%dl, 802(%r13)
	jmp	.LBB48_782
.LBB48_751:                             #   in Loop: Header=BB48_17 Depth=1
	movb	%dl, 48(%r12)
	jmp	.LBB48_782
.LBB48_752:                             #   in Loop: Header=BB48_17 Depth=1
	movb	%dl, 1105(%r13)
	jmp	.LBB48_782
.LBB48_753:                             #   in Loop: Header=BB48_17 Depth=1
	movb	%dl, 797(%r13)
	jmp	.LBB48_782
.LBB48_754:                             #   in Loop: Header=BB48_17 Depth=1
	movq	%rdi, %rbp
	movq	%r13, %rdi
	movq	%r9, %rsi
	movq	%r9, %rbx
	callq	ftpfilemethod
	movq	%rbp, %rdi
	movb	8(%rsp), %sil           # 1-byte Reload
	movl	4(%rsp), %edx           # 4-byte Reload
	movq	%rbx, %r9
	movl	%eax, 1088(%r13)
	jmp	.LBB48_782
.LBB48_755:                             #   in Loop: Header=BB48_17 Depth=1
	movq	%rdi, %r14
	xorl	%eax, %eax
	movl	%eax, 67(%rsp)
	movl	%eax, 64(%rsp)
	movq	%r9, 24(%rsp)           # 8-byte Spill
	leaq	-1(%r9), %rbx
.LBB48_756:                             #   Parent Loop BB48_17 Depth=1
                                        # =>  This Inner Loop Header: Depth=2
	movzbl	1(%rbx), %edi
	incq	%rbx
	callq	Curl_isdigit
	testl	%eax, %eax
	jne	.LBB48_756
# %bb.757:                              #   in Loop: Header=BB48_17 Depth=1
	cmpb	$0, (%rbx)
	movq	248(%rsp), %r15         # 8-byte Reload
	je	.LBB48_798
# %bb.758:                              #   in Loop: Header=BB48_17 Depth=1
	leaq	64(%rsp), %rdx
	movl	$.L.str.9.113, %esi
	movq	%rbx, %rdi
	xorl	%eax, %eax
	callq	__isoc99_sscanf
	movl	%eax, %ebp
	movb	$0, (%rbx)
	jmp	.LBB48_799
.LBB48_759:                             #   in Loop: Header=BB48_17 Depth=1
	movq	%rdi, %rbp
	movq	384(%r13), %rdi
	testq	%rdi, %rdi
	je	.LBB48_761
# %bb.760:                              #   in Loop: Header=BB48_17 Depth=1
	movq	%r9, %rbx
	callq	myFree
	movq	%rbx, %r9
	movq	$0, 384(%r13)
.LBB48_761:                             #   in Loop: Header=BB48_17 Depth=1
	testq	%r9, %r9
	je	.LBB48_763
# %bb.762:                              #   in Loop: Header=BB48_17 Depth=1
	movq	%r9, %rdi
	movq	%r9, %rbx
	callq	strdup
	movq	%rbx, %r9
	movq	%rax, 384(%r13)
	testq	%rax, %rax
	je	.LBB48_709
.LBB48_763:                             #   in Loop: Header=BB48_17 Depth=1
	movl	$4, 392(%r13)
	jmp	.LBB48_317
.LBB48_764:                             #   in Loop: Header=BB48_17 Depth=1
	movq	%rdi, %rbp
	movq	1080(%r13), %rdi
	testq	%rdi, %rdi
	je	.LBB48_766
# %bb.765:                              #   in Loop: Header=BB48_17 Depth=1
	movq	%r9, %rbx
	callq	myFree
	movq	%rbx, %r9
	movq	$0, 1080(%r13)
.LBB48_766:                             #   in Loop: Header=BB48_17 Depth=1
	testq	%r9, %r9
	je	.LBB48_722
# %bb.767:                              #   in Loop: Header=BB48_17 Depth=1
	movq	%r9, %rdi
	movq	%r9, %rbx
	callq	strdup
	movq	%rbx, %r9
	movq	%rax, 1080(%r13)
	jmp	.LBB48_781
.LBB48_768:                             #   in Loop: Header=BB48_17 Depth=1
	testb	%dl, %dl
	je	.LBB48_770
# %bb.769:                              #   in Loop: Header=BB48_17 Depth=1
	movq	curlinfo(%rip), %rax
	testb	$4, 32(%rax)
	je	.LBB48_841
.LBB48_770:                             #   in Loop: Header=BB48_17 Depth=1
	movb	%dl, 985(%r13)
	jmp	.LBB48_782
.LBB48_771:                             #   in Loop: Header=BB48_17 Depth=1
	movb	23(%rsp), %al           # 1-byte Reload
	movb	%al, 1106(%r13)
	jmp	.LBB48_782
.LBB48_772:                             #   in Loop: Header=BB48_17 Depth=1
	testb	%dl, %dl
	je	.LBB48_774
# %bb.773:                              #   in Loop: Header=BB48_17 Depth=1
	movq	curlinfo(%rip), %rax
	testb	$4, 32(%rax)
	je	.LBB48_841
.LBB48_774:                             #   in Loop: Header=BB48_17 Depth=1
	movb	%dl, 986(%r13)
	jmp	.LBB48_782
.LBB48_775:                             #   in Loop: Header=BB48_17 Depth=1
	movb	%dl, 987(%r13)
	cmpl	$0, 988(%r13)
	jne	.LBB48_782
# %bb.776:                              #   in Loop: Header=BB48_17 Depth=1
	movl	$1, 988(%r13)
	jmp	.LBB48_782
.LBB48_777:                             #   in Loop: Header=BB48_17 Depth=1
	movq	%rdi, %rbp
	movq	56(%r12), %rdi
	testq	%rdi, %rdi
	je	.LBB48_779
# %bb.778:                              #   in Loop: Header=BB48_17 Depth=1
	movq	%r9, %rbx
	callq	myFree
	movq	%rbx, %r9
	movq	$0, 56(%r12)
.LBB48_779:                             #   in Loop: Header=BB48_17 Depth=1
	testq	%r9, %r9
	je	.LBB48_722
# %bb.780:                              #   in Loop: Header=BB48_17 Depth=1
	movq	%r9, %rdi
	movq	%r9, %rbx
	callq	strdup
	movq	%rbx, %r9
	movq	%rax, 56(%r12)
	jmp	.LBB48_781
.LBB48_722:                             #   in Loop: Header=BB48_17 Depth=1
	xorl	%r9d, %r9d
.LBB48_317:                             #   in Loop: Header=BB48_17 Depth=1
	movl	4(%rsp), %edx           # 4-byte Reload
	movb	8(%rsp), %sil           # 1-byte Reload
	movq	%rbp, %rdi
.LBB48_782:                             #   in Loop: Header=BB48_17 Depth=1
	movb	$1, %al
	movl	%edi, %ecx
	andb	%al, %cl
	xorb	%sil, %al
	xorl	%ebp, %ebp
	orb	%cl, %al
	jne	.LBB48_10
# %bb.783:                              #   in Loop: Header=BB48_17 Depth=1
	movq	48(%rsp), %rax          # 8-byte Reload
	cmpb	$0, 1(%rax)
	je	.LBB48_10
# %bb.784:                              #   in Loop: Header=BB48_17 Depth=1
	incq	%rax
	movq	%rax, 48(%rsp)          # 8-byte Spill
	movl	$-1, %r15d
	movq	200(%rsp), %rax         # 8-byte Reload
	cmpb	$0, (%rax)
	je	.LBB48_17
	jmp	.LBB48_10
.LBB48_785:                             #   in Loop: Header=BB48_17 Depth=1
	movq	%rdi, %rbp
	movq	336(%rsp), %rdi         # 8-byte Reload
	movq	%r9, %rsi
	movq	%r9, %rbx
	callq	str2unum
	jmp	.LBB48_712
.LBB48_786:                             #   in Loop: Header=BB48_17 Depth=1
	movq	40(%rsp), %rax          # 8-byte Reload
	andb	$-33, (%rax)
	jmp	.LBB48_782
.LBB48_787:                             #   in Loop: Header=BB48_17 Depth=1
	andq	$-3, %rax
	jmp	.LBB48_457
.LBB48_788:                             #   in Loop: Header=BB48_17 Depth=1
	movq	40(%rsp), %rax          # 8-byte Reload
	andb	$-5, (%rax)
	jmp	.LBB48_782
.LBB48_789:                             #   in Loop: Header=BB48_17 Depth=1
	movq	40(%rsp), %rax          # 8-byte Reload
	andb	$-9, (%rax)
	jmp	.LBB48_782
.LBB48_790:                             #   in Loop: Header=BB48_17 Depth=1
	andq	$-2, %rax
.LBB48_457:                             #   in Loop: Header=BB48_17 Depth=1
	movq	%rax, (%rcx)
	jmp	.LBB48_782
.LBB48_791:                             #   in Loop: Header=BB48_17 Depth=1
	movq	stdout(%rip), %rax
	movq	%rax, 8(%r12)
	jmp	.LBB48_271
.LBB48_792:                             #   in Loop: Header=BB48_17 Depth=1
	andq	$-2, %rax
	jmp	.LBB48_522
.LBB48_793:                             #   in Loop: Header=BB48_17 Depth=1
	andq	$-5, %rax
.LBB48_522:                             #   in Loop: Header=BB48_17 Depth=1
	movq	%rax, 1008(%r13)
	jmp	.LBB48_782
.LBB48_794:                             #   in Loop: Header=BB48_17 Depth=1
	movq	%r9, %rbx
	xorl	%eax, %eax
.LBB48_795:                             #   in Loop: Header=BB48_17 Depth=1
	movq	%rax, %rdi
	callq	check_protocol
	jmp	.LBB48_796
.LBB48_798:                             #   in Loop: Header=BB48_17 Depth=1
	xorl	%ebp, %ebp
.LBB48_799:                             #   in Loop: Header=BB48_17 Depth=1
	movq	256(%rsp), %rbx         # 8-byte Reload
	movq	%rbx, %rdi
	movq	24(%rsp), %rsi          # 8-byte Reload
	callq	str2unum
	testl	%eax, %eax
	movl	4(%rsp), %edx           # 4-byte Reload
	movb	8(%rsp), %sil           # 1-byte Reload
	jne	.LBB48_805
# %bb.800:                              #   in Loop: Header=BB48_17 Depth=1
	cmpq	$65535, (%rbx)          # imm = 0xFFFF
	jg	.LBB48_805
# %bb.801:                              #   in Loop: Header=BB48_17 Depth=1
	testl	%ebp, %ebp
	je	.LBB48_807
# %bb.802:                              #   in Loop: Header=BB48_17 Depth=1
	leaq	64(%rsp), %rsi
	movq	%r15, %rdi
	callq	str2unum
	movb	8(%rsp), %sil           # 1-byte Reload
	movl	4(%rsp), %edx           # 4-byte Reload
	testl	%eax, %eax
	jne	.LBB48_805
# %bb.803:                              #   in Loop: Header=BB48_17 Depth=1
	movq	(%r15), %rax
	cmpq	$65535, %rax            # imm = 0xFFFF
	jg	.LBB48_805
# %bb.804:                              #   in Loop: Header=BB48_17 Depth=1
	movq	%r14, %rdi
	subq	(%rbx), %rax
